	.section .text
.LNDBG_TX:
# mark_description "Intel(R) C Intel(R) 64 Compiler for applications running on Intel(R) 64, Version 18.0.2.199 Build 20180210";
# mark_description "-S -std=c++11 -O3 -g -o test.s -fopenmp";
	.file "minimax_graph_parallel_v2.cpp"
	.text
..TXTST0:
.L_2__routine_start_main_0:
# -- Begin  main
	.text
# mark_begin;
       .align    16,0x90
	.globl main
# --- main(int, char **)
main:
# parameter 1(argc): %edi
# parameter 2(argv): %rsi
..B1.1:                         # Preds ..B1.0
                                # Execution count [0.00e+00]
	.cfi_startproc
	.cfi_personality 0x3,__gxx_personality_v0
..___tag_value_main.2:
..L3:
                                                          #421.33
..LN0:
	.file   1 "sources/minimax_graph_parallel_v2.cpp"
	.loc    1  421  is_stmt 1
        pushq     %rbp                                          #421.33
	.cfi_def_cfa_offset 16
..LN1:
        movq      %rsp, %rbp                                    #421.33
	.cfi_def_cfa 6, 16
	.cfi_offset 6, -16
..LN2:
        andq      $-128, %rsp                                   #421.33
..LN3:
        pushq     %r12                                          #421.33
..LN4:
        pushq     %r13                                          #421.33
..LN5:
        pushq     %r14                                          #421.33
..LN6:
        pushq     %r15                                          #421.33
..LN7:
        pushq     %rbx                                          #421.33
..LN8:
        subq      $216, %rsp                                    #421.33
..LN9:
        xorl      %esi, %esi                                    #421.33
..LN10:
        movl      $3, %edi                                      #421.33
..LN11:
        call      __intel_new_feature_proc_init                 #421.33
	.cfi_escape 0x10, 0x03, 0x0e, 0x38, 0x1c, 0x0d, 0x80, 0xff, 0xff, 0xff, 0x1a, 0x0d, 0xd8, 0xff, 0xff, 0xff, 0x22
	.cfi_escape 0x10, 0x0c, 0x0e, 0x38, 0x1c, 0x0d, 0x80, 0xff, 0xff, 0xff, 0x1a, 0x0d, 0xf8, 0xff, 0xff, 0xff, 0x22
	.cfi_escape 0x10, 0x0d, 0x0e, 0x38, 0x1c, 0x0d, 0x80, 0xff, 0xff, 0xff, 0x1a, 0x0d, 0xf0, 0xff, 0xff, 0xff, 0x22
	.cfi_escape 0x10, 0x0e, 0x0e, 0x38, 0x1c, 0x0d, 0x80, 0xff, 0xff, 0xff, 0x1a, 0x0d, 0xe8, 0xff, 0xff, 0xff, 0x22
	.cfi_escape 0x10, 0x0f, 0x0e, 0x38, 0x1c, 0x0d, 0x80, 0xff, 0xff, 0xff, 0x1a, 0x0d, 0xe0, 0xff, 0xff, 0xff, 0x22
..LN12:
                                # LOE r12
..B1.88:                        # Preds ..B1.1
                                # Execution count [0.00e+00]
..LN13:
        stmxcsr   (%rsp)                                        #421.33
..LN14:
        movl      $.2.87_2_kmpc_loc_struct_pack.87, %edi        #421.33
..LN15:
        xorl      %esi, %esi                                    #421.33
..LN16:
        orl       $32832, (%rsp)                                #421.33
..LN17:
        xorl      %eax, %eax                                    #421.33
..LN18:
        ldmxcsr   (%rsp)                                        #421.33
..___tag_value_main.13:
..LN19:
        call      __kmpc_begin                                  #421.33
..___tag_value_main.14:
..LN20:
                                # LOE r12
..B1.2:                         # Preds ..B1.88
                                # Execution count [1.00e+00]
..LN21:
	.loc    1  422  prologue_end  is_stmt 1
        movq      $0, 128(%rsp)                                 #422.53
..LN22:
                                # LOE r12
..B1.3:                         # Preds ..B1.2
                                # Execution count [1.00e+00]
..LN23:
        movq      $0, 144(%rsp)                                 #422.60
..LN24:
                                # LOE r12
..B1.4:                         # Preds ..B1.3
                                # Execution count [1.00e+00]
..LN25:
	.loc    1  424  is_stmt 1
        xorl      %r13d, %r13d                                  #424.3
..LN26:
	.loc    1  425  is_stmt 1
        movl      $1, %ebx                                      #425.3
..LN27:
	.loc    1  430  is_stmt 1
        movl      $2, %eax                                      #430.3
..LN28:
	.loc    1  432  is_stmt 1
        movl      $3, %edx                                      #432.3
..LN29:
	.loc    1  434  is_stmt 1
        movl      $4, %r14d                                     #434.3
..LN30:
	.loc    1  445  is_stmt 1
        movl      $5, %ecx                                      #445.3
..LN31:
	.loc    1  424  is_stmt 1
        movl      %r13d, cs(%rip)                               #424.3
..LN32:
	.loc    1  425  is_stmt 1
        movl      %ebx, 48+cs(%rip)                             #425.3
..LN33:
	.loc    1  426  is_stmt 1
        movl      %r13d, 4+cs(%rip)                             #426.3
..LN34:
	.loc    1  427  is_stmt 1
        movl      %r13d, 52+cs(%rip)                            #427.3
..LN35:
	.loc    1  428  is_stmt 1
        movl      %ebx, 8+cs(%rip)                              #428.3
..LN36:
	.loc    1  429  is_stmt 1
        movl      %r13d, 56+cs(%rip)                            #429.3
..LN37:
	.loc    1  430  is_stmt 1
        movl      %eax, 12+cs(%rip)                             #430.3
..LN38:
	.loc    1  431  is_stmt 1
        movl      %r13d, 60+cs(%rip)                            #431.3
..LN39:
	.loc    1  432  is_stmt 1
        movl      %edx, 16+cs(%rip)                             #432.3
..LN40:
	.loc    1  433  is_stmt 1
        movl      %r13d, 64+cs(%rip)                            #433.3
..LN41:
	.loc    1  434  is_stmt 1
        movl      %r14d, 20+cs(%rip)                            #434.3
..LN42:
	.loc    1  435  is_stmt 1
        movl      %r13d, 68+cs(%rip)                            #435.3
..LN43:
	.loc    1  437  is_stmt 1
        movl      %ebx, 24+cs(%rip)                             #437.3
..LN44:
	.loc    1  438  is_stmt 1
        movl      %ebx, 72+cs(%rip)                             #438.3
..LN45:
	.loc    1  439  is_stmt 1
        movl      %eax, 28+cs(%rip)                             #439.3
..LN46:
	.loc    1  440  is_stmt 1
        movl      %ebx, 76+cs(%rip)                             #440.3
..LN47:
	.loc    1  441  is_stmt 1
        movl      %edx, 32+cs(%rip)                             #441.3
..LN48:
	.loc    1  442  is_stmt 1
        movl      %ebx, 80+cs(%rip)                             #442.3
..LN49:
	.loc    1  443  is_stmt 1
        movl      %r14d, 36+cs(%rip)                            #443.3
..LN50:
	.loc    1  444  is_stmt 1
        movl      %ebx, 84+cs(%rip)                             #444.3
..LN51:
	.loc    1  445  is_stmt 1
        movl      %ecx, 40+cs(%rip)                             #445.3
..LN52:
	.loc    1  446  is_stmt 1
        movl      %ebx, 88+cs(%rip)                             #446.3
..LN53:
	.loc    1  447  is_stmt 1
        movl      %ecx, 44+cs(%rip)                             #447.3
..LN54:
	.loc    1  448  is_stmt 1
        movl      %r13d, 92+cs(%rip)                            #448.3
..___tag_value_main.15:
..LN55:
	.loc    1  450  is_stmt 1
#       std::chrono::_V2::system_clock::now()
        call      _ZNSt6chrono3_V212system_clock3nowEv          #450.10
..___tag_value_main.16:
..LN56:
                                # LOE rax r12 ebx r13d r14d
..B1.89:                        # Preds ..B1.4
                                # Execution count [1.00e+00]
..LN57:
        movq      %rax, 128(%rsp)                               #450.10
..LN58:
                                # LOE r12 ebx r13d r14d
..B1.5:                         # Preds ..B1.89
                                # Execution count [1.00e+00]
..L18:
                # optimization report
                # LOOP WAS COMPLETELY UNROLLED BY 2
                # REMAINDER LOOP FOR VECTORIZATION
..L17:
                # optimization report
                # LOOP WAS VECTORIZED
                # VECTORIZATION HAS UNALIGNED MEMORY REFERENCES
                # VECTORIZATION SPEEDUP COEFFECIENT 1.412109
                # LOOP HAS ONE VECTOR ITERATION
                # VECTOR LENGTH 4
                # MAIN VECTOR TYPE: 32-bits integer
..LN59:
	.loc    1  414  is_stmt 1
..LN60:
	.loc    1  415  is_stmt 1
        movdqu    .L_2il0floatpacket.4(%rip), %xmm0             #415.21
..LN61:
	.loc    1  456  is_stmt 1
        movl      $il0_peep_printf_format_0, %edi               #456.2
..LN62:
	.loc    1  415  is_stmt 1
        movdqu    %xmm0, (%rsp)                                 #415.3
..LN63:
	.loc    1  416  is_stmt 1
        movdqu    %xmm0, 24(%rsp)                               #416.3
..LN64:
	.loc    1  415  is_stmt 1
        movl      %r14d, 16(%rsp)                               #415.3
..LN65:
	.loc    1  416  is_stmt 1
        movl      %r14d, 40(%rsp)                               #416.3
..LN66:
	.loc    1  415  is_stmt 1
        movl      %r14d, 20(%rsp)                               #415.3
..LN67:
	.loc    1  416  is_stmt 1
        movl      %r14d, 44(%rsp)                               #416.3
..LN68:
	.loc    1  418  is_stmt 1
        movl      %r13d, 48(%rsp)                               #418.2
..LN69:
        movl      %r13d, 52(%rsp)                               #418.21
..LN70:
	.loc    1  456  is_stmt 1
        call      puts                                          #456.2
..LN71:
                                # LOE r12 ebx r13d
..B1.6:                         # Preds ..B1.5
                                # Execution count [1.00e+00]
..LN72:
	.loc    1  457  is_stmt 1
        movl      $il0_peep_printf_format_1, %edi               #457.2
..LN73:
        call      puts                                          #457.2
..LN74:
                                # LOE r12 ebx r13d
..B1.7:                         # Preds ..B1.6
                                # Execution count [1.00e+00]
..LN75:
	.loc    1  458  is_stmt 1
        movl      $il0_peep_printf_format_2, %edi               #458.2
..LN76:
        call      puts                                          #458.2
..LN77:
                                # LOE r12 ebx r13d
..B1.8:                         # Preds ..B1.7
                                # Execution count [1.00e+00]
..LN78:
	.loc    1  461  is_stmt 1
        movl      $.L_2__STRING.9, %edi                         #461.5
..LN79:
        lea       60(%rsp), %rsi                                #461.5
..LN80:
        xorl      %eax, %eax                                    #461.5
..LN81:
#       scanf(const char *, ...)
        call      scanf                                         #461.5
..LN82:
                                # LOE r12 ebx r13d
..B1.9:                         # Preds ..B1.8
                                # Execution count [1.00e+00]
..LN83:
	.loc    1  463  is_stmt 1
        movl      60(%rsp), %r14d                               #463.21
..LN84:
        testl     %r14d, %r14d                                  #463.29
..LN85:
        jne       ..B1.12       # Prob 50%                      #463.29
..LN86:
                                # LOE r12 ebx r13d r14d
..B1.10:                        # Preds ..B1.9
                                # Execution count [5.00e-01]
..LN87:
	.loc    1  464  is_stmt 1
        movl      $il0_peep_printf_format_4, %edi               #464.2
..LN88:
	.loc    1  463  is_stmt 1
        movb      $1, %r15b                                     #463.29
..LN89:
	.loc    1  464  is_stmt 1
        call      puts                                          #464.2
..LN90:
                                # LOE r12 ebx r13d r14d r15b
..B1.11:                        # Preds ..B1.10
                                # Execution count [0.00e+00]
..L19:
                # optimization report
                # %s was not vectorized: inner loop was already vectorized
..LN91:
	.loc    1  468  is_stmt 1
..LN92:
	.loc    1  466  is_stmt 1
        movl      %r13d, %edx                                   #466.12
..LN93:
	.loc    1  468  is_stmt 1
        movl      %ebx, %r13d                                   #468.2
..LN94:
        movb      %r15b, %bl                                    #468.2
..LN95:
        movl      %edx, %r15d                                   #468.2
..LN96:
        jmp       ..B1.60       # Prob 100%                     #468.2
..LN97:
                                # LOE r13d r14d r15d bl
..B1.12:                        # Preds ..B1.9
                                # Execution count [5.00e-01]
..LN98:
	.loc    1  464  is_stmt 1
        movl      $il0_peep_printf_format_3, %edi               #464.2
..LN99:
	.loc    1  463  is_stmt 1
        xorb      %r15b, %r15b                                  #463.29
..LN100:
	.loc    1  464  is_stmt 1
        call      puts                                          #464.2
..LN101:
                                # LOE r12 ebx r13d r15b
..B1.13:                        # Preds ..B1.12
                                # Execution count [5.00e-01]
..L20:
                # optimization report
                # %s was not vectorized: inner loop was already vectorized
..LN102:
	.loc    1  468  is_stmt 1
..LN103:
	.loc    1  466  is_stmt 1
        movl      %r13d, %edx                                   #466.12
..LN104:
	.loc    1  468  is_stmt 1
        movl      %ebx, %r13d                                   #468.2
..LN105:
        movb      %r15b, %bl                                    #468.2
..LN106:
        movl      %edx, %r15d                                   #468.2
..LN107:
                                # LOE r13d r15d bl
..B1.14:                        # Preds ..B1.13 ..B1.82
                                # Execution count [2.17e+00]
..LN108:
	.loc    1  499  is_stmt 1
        movl      $il0_peep_printf_format_5, %edi               #499.5
..LN109:
        call      puts                                          #499.5
..LN110:
                                # LOE r13d r15d bl
..B1.15:                        # Preds ..B1.14
                                # Execution count [2.17e+00]
..LN111:
	.loc    1  500  is_stmt 1
        movl      $.L_2__STRING.9, %edi                         #500.8
..LN112:
        lea       56(%rsp), %rsi                                #500.8
..LN113:
        xorl      %eax, %eax                                    #500.8
..LN114:
#       scanf(const char *, ...)
        call      scanf                                         #500.8
..LN115:
                                # LOE r13d r15d bl
..B1.16:                        # Preds ..B1.15
                                # Execution count [2.17e+00]
..LN116:
	.loc    1  502  is_stmt 1
        movl      56(%rsp), %ecx                                #502.5
..LN117:
        decl      %ecx                                          #502.5
..LN118:
        movl      %ecx, 56(%rsp)                                #502.5
..LN119:
                                # LOE ecx r13d r15d bl
..B1.17:                        # Preds ..B1.85 ..B1.16
                                # Execution count [4.33e+00]
..LN120:
	.loc    1  506  is_stmt 1
        movl      60(%rsp), %r14d                               #506.28
..LN121:
        lea       64(%rsp), %rdi                                #506.4
..LN122:
        movl      %r14d, %edx                                   #506.4
..LN123:
        lea       (%rsp), %rsi                                  #506.4
..___tag_value_main.21:
..LN124:
#       jouer_coup(Position *, Position *, int, int)
        call      _Z10jouer_coupP3PosS0_ii                      #506.4
..___tag_value_main.22:
..LN125:
                                # LOE r13d r14d r15d bl
..B1.18:                        # Preds ..B1.17
                                # Execution count [4.33e+00]
..L24:
                # optimization report
                # LOOP WAS COMPLETELY UNROLLED BY 2
                # REMAINDER LOOP FOR VECTORIZATION
..L23:
                # optimization report
                # LOOP WAS VECTORIZED
                # VECTORIZATION HAS UNALIGNED MEMORY REFERENCES
                # VECTORIZATION SPEEDUP COEFFECIENT 1.680664
                # LOOP HAS ONE VECTOR ITERATION
                # VECTOR LENGTH 4
                # MAIN VECTOR TYPE: 32-bits integer
..LN126:
	.loc    1  108  is_stmt 1
..LN127:
	.loc    1  110  is_stmt 1
        movdqu    88(%rsp), %xmm1                               #110.24
..LN128:
	.loc    1  109  is_stmt 1
        movdqu    64(%rsp), %xmm0                               #109.24
..LN129:
        movl      80(%rsp), %eax                                #109.24
..LN130:
	.loc    1  110  is_stmt 1
        movl      104(%rsp), %ecx                               #110.24
..LN131:
	.loc    1  109  is_stmt 1
        movl      84(%rsp), %esi                                #109.24
..LN132:
	.loc    1  110  is_stmt 1
        movl      108(%rsp), %edi                               #110.24
..LN133:
	.loc    1  112  is_stmt 1
        movl      112(%rsp), %r8d                               #112.24
..LN134:
	.loc    1  113  is_stmt 1
        movl      116(%rsp), %r9d                               #113.24
..LN135:
	.loc    1  109  is_stmt 1
        movdqu    %xmm0, (%rsp)                                 #109.3
..LN136:
	.loc    1  110  is_stmt 1
        movdqu    %xmm1, 24(%rsp)                               #110.3
..LN137:
	.loc    1  109  is_stmt 1
        movl      %eax, 16(%rsp)                                #109.3
..LN138:
	.loc    1  110  is_stmt 1
        movl      %ecx, 40(%rsp)                                #110.3
..LN139:
	.loc    1  109  is_stmt 1
        movl      %esi, 20(%rsp)                                #109.3
..LN140:
	.loc    1  110  is_stmt 1
        movl      %edi, 44(%rsp)                                #110.3
..LN141:
	.loc    1  112  is_stmt 1
        movl      %r8d, 48(%rsp)                                #112.2
..LN142:
	.loc    1  113  is_stmt 1
        movl      %r9d, 52(%rsp)                                #113.2
..LN143:
	.loc    1  510  is_stmt 1
        testb     %bl, %bl                                      #510.8
..LN144:
        je        ..B1.35       # Prob 50%                      #510.8
..LN145:
                                # LOE r13d r14d r15d bl
..B1.19:                        # Preds ..B1.18
                                # Execution count [2.17e+00]
..LN146:
	.loc    1  56  is_stmt 1
        movl      $il0_peep_printf_format_8, %edi               #56.2
..LN147:
        call      puts                                          #56.2
..LN148:
                                # LOE r13d r14d r15d bl
..B1.20:                        # Preds ..B1.19
                                # Execution count [2.17e+00]
..L25:
                # optimization report
                # LOOP WAS COMPLETELY UNROLLED BY 6
                # %s was not vectorized: vector dependence prevents vectorization%s
                # VECTOR TRIP COUNT IS KNOWN CONSTANT
..LN149:
	.loc    1  57  is_stmt 1
..LN150:
	.loc    1  58  is_stmt 1
        movl      $.L_2__STRING.1, %edi                         #58.3
..LN151:
        xorl      %eax, %eax                                    #58.3
..LN152:
        movl      20(%rsp), %esi                                #58.3
..___tag_value_main.26:
..LN153:
#       printf(const char *, ...)
        call      printf                                        #58.3
..___tag_value_main.27:
..LN154:
                                # LOE r13d r14d r15d bl
..B1.21:                        # Preds ..B1.20
                                # Execution count [2.17e+00]
..LN155:
        movl      $.L_2__STRING.1, %edi                         #58.3
..LN156:
        xorl      %eax, %eax                                    #58.3
..LN157:
        movl      16(%rsp), %esi                                #58.3
..___tag_value_main.28:
..LN158:
#       printf(const char *, ...)
        call      printf                                        #58.3
..___tag_value_main.29:
..LN159:
                                # LOE r13d r14d r15d bl
..B1.22:                        # Preds ..B1.21
                                # Execution count [2.17e+00]
..LN160:
        movl      $.L_2__STRING.1, %edi                         #58.3
..LN161:
        xorl      %eax, %eax                                    #58.3
..LN162:
        movl      12(%rsp), %esi                                #58.3
..___tag_value_main.30:
..LN163:
#       printf(const char *, ...)
        call      printf                                        #58.3
..___tag_value_main.31:
..LN164:
                                # LOE r13d r14d r15d bl
..B1.23:                        # Preds ..B1.22
                                # Execution count [2.17e+00]
..LN165:
        movl      $.L_2__STRING.1, %edi                         #58.3
..LN166:
        xorl      %eax, %eax                                    #58.3
..LN167:
        movl      8(%rsp), %esi                                 #58.3
..___tag_value_main.32:
..LN168:
#       printf(const char *, ...)
        call      printf                                        #58.3
..___tag_value_main.33:
..LN169:
                                # LOE r13d r14d r15d bl
..B1.24:                        # Preds ..B1.23
                                # Execution count [2.17e+00]
..LN170:
        movl      $.L_2__STRING.1, %edi                         #58.3
..LN171:
        xorl      %eax, %eax                                    #58.3
..LN172:
        movl      4(%rsp), %esi                                 #58.3
..___tag_value_main.34:
..LN173:
#       printf(const char *, ...)
        call      printf                                        #58.3
..___tag_value_main.35:
..LN174:
                                # LOE r13d r14d r15d bl
..B1.25:                        # Preds ..B1.24
                                # Execution count [2.17e+00]
..LN175:
        movl      $.L_2__STRING.1, %edi                         #58.3
..LN176:
        xorl      %eax, %eax                                    #58.3
..LN177:
        movl      (%rsp), %esi                                  #58.3
..___tag_value_main.36:
..LN178:
#       printf(const char *, ...)
        call      printf                                        #58.3
..___tag_value_main.37:
..LN179:
                                # LOE r13d r14d r15d bl
..B1.26:                        # Preds ..B1.25
                                # Execution count [2.17e+00]
..LN180:
	.loc    1  60  is_stmt 1
        movl      $.L_2__STRING.2, %edi                         #60.2
..LN181:
        xorl      %eax, %eax                                    #60.2
..LN182:
        movl      48(%rsp), %esi                                #60.2
..___tag_value_main.38:
..LN183:
#       printf(const char *, ...)
        call      printf                                        #60.2
..___tag_value_main.39:
..LN184:
                                # LOE r13d r14d r15d bl
..B1.27:                        # Preds ..B1.26
                                # Execution count [2.17e+00]
..L40:
                # optimization report
                # LOOP WAS COMPLETELY UNROLLED BY 6
                # %s was not vectorized: vector dependence prevents vectorization%s
                # VECTOR TRIP COUNT IS KNOWN CONSTANT
..LN185:
	.loc    1  61  is_stmt 1
..LN186:
	.loc    1  62  is_stmt 1
        movl      $.L_2__STRING.1, %edi                         #62.3
..LN187:
        xorl      %eax, %eax                                    #62.3
..LN188:
        movl      44(%rsp), %esi                                #62.3
..___tag_value_main.41:
..LN189:
#       printf(const char *, ...)
        call      printf                                        #62.3
..___tag_value_main.42:
..LN190:
                                # LOE r13d r14d r15d bl
..B1.28:                        # Preds ..B1.27
                                # Execution count [2.17e+00]
..LN191:
        movl      $.L_2__STRING.1, %edi                         #62.3
..LN192:
        xorl      %eax, %eax                                    #62.3
..LN193:
        movl      40(%rsp), %esi                                #62.3
..___tag_value_main.43:
..LN194:
#       printf(const char *, ...)
        call      printf                                        #62.3
..___tag_value_main.44:
..LN195:
                                # LOE r13d r14d r15d bl
..B1.29:                        # Preds ..B1.28
                                # Execution count [2.17e+00]
..LN196:
        movl      $.L_2__STRING.1, %edi                         #62.3
..LN197:
        xorl      %eax, %eax                                    #62.3
..LN198:
        movl      36(%rsp), %esi                                #62.3
..___tag_value_main.45:
..LN199:
#       printf(const char *, ...)
        call      printf                                        #62.3
..___tag_value_main.46:
..LN200:
                                # LOE r13d r14d r15d bl
..B1.30:                        # Preds ..B1.29
                                # Execution count [2.17e+00]
..LN201:
        movl      $.L_2__STRING.1, %edi                         #62.3
..LN202:
        xorl      %eax, %eax                                    #62.3
..LN203:
        movl      32(%rsp), %esi                                #62.3
..___tag_value_main.47:
..LN204:
#       printf(const char *, ...)
        call      printf                                        #62.3
..___tag_value_main.48:
..LN205:
                                # LOE r13d r14d r15d bl
..B1.31:                        # Preds ..B1.30
                                # Execution count [2.17e+00]
..LN206:
        movl      $.L_2__STRING.1, %edi                         #62.3
..LN207:
        xorl      %eax, %eax                                    #62.3
..LN208:
        movl      28(%rsp), %esi                                #62.3
..___tag_value_main.49:
..LN209:
#       printf(const char *, ...)
        call      printf                                        #62.3
..___tag_value_main.50:
..LN210:
                                # LOE r13d r14d r15d bl
..B1.32:                        # Preds ..B1.31
                                # Execution count [2.17e+00]
..LN211:
        movl      $.L_2__STRING.1, %edi                         #62.3
..LN212:
        xorl      %eax, %eax                                    #62.3
..LN213:
        movl      24(%rsp), %esi                                #62.3
..___tag_value_main.51:
..LN214:
#       printf(const char *, ...)
        call      printf                                        #62.3
..___tag_value_main.52:
..LN215:
                                # LOE r13d r14d r15d bl
..B1.33:                        # Preds ..B1.32
                                # Execution count [2.17e+00]
..LN216:
	.loc    1  64  is_stmt 1
        movl      $.L_2__STRING.3, %edi                         #64.2
..LN217:
        xorl      %eax, %eax                                    #64.2
..LN218:
        movl      52(%rsp), %esi                                #64.2
..___tag_value_main.53:
..LN219:
#       printf(const char *, ...)
        call      printf                                        #64.2
..___tag_value_main.54:
..LN220:
        jmp       ..B1.50       # Prob 100%                     #64.2
..LN221:
                                # LOE r13d r14d r15d bl
..B1.35:                        # Preds ..B1.18
                                # Execution count [2.17e+00]
..LN222:
	.loc    1  44  is_stmt 1
        movl      $il0_peep_printf_format_7, %edi               #44.2
..LN223:
        call      puts                                          #44.2
..LN224:
                                # LOE r13d r14d r15d bl
..B1.36:                        # Preds ..B1.35
                                # Execution count [2.17e+00]
..L55:
                # optimization report
                # LOOP WAS COMPLETELY UNROLLED BY 6
                # %s was not vectorized: vector dependence prevents vectorization%s
                # VECTOR TRIP COUNT IS KNOWN CONSTANT
..LN225:
	.loc    1  45  is_stmt 1
..LN226:
	.loc    1  46  is_stmt 1
        movl      $.L_2__STRING.1, %edi                         #46.3
..LN227:
        xorl      %eax, %eax                                    #46.3
..LN228:
        movl      24(%rsp), %esi                                #46.3
..___tag_value_main.56:
..LN229:
#       printf(const char *, ...)
        call      printf                                        #46.3
..___tag_value_main.57:
..LN230:
                                # LOE r13d r14d r15d bl
..B1.37:                        # Preds ..B1.36
                                # Execution count [2.17e+00]
..LN231:
        movl      $.L_2__STRING.1, %edi                         #46.3
..LN232:
        xorl      %eax, %eax                                    #46.3
..LN233:
        movl      28(%rsp), %esi                                #46.3
..___tag_value_main.58:
..LN234:
#       printf(const char *, ...)
        call      printf                                        #46.3
..___tag_value_main.59:
..LN235:
                                # LOE r13d r14d r15d bl
..B1.38:                        # Preds ..B1.37
                                # Execution count [2.17e+00]
..LN236:
        movl      $.L_2__STRING.1, %edi                         #46.3
..LN237:
        xorl      %eax, %eax                                    #46.3
..LN238:
        movl      32(%rsp), %esi                                #46.3
..___tag_value_main.60:
..LN239:
#       printf(const char *, ...)
        call      printf                                        #46.3
..___tag_value_main.61:
..LN240:
                                # LOE r13d r14d r15d bl
..B1.39:                        # Preds ..B1.38
                                # Execution count [2.17e+00]
..LN241:
        movl      $.L_2__STRING.1, %edi                         #46.3
..LN242:
        xorl      %eax, %eax                                    #46.3
..LN243:
        movl      36(%rsp), %esi                                #46.3
..___tag_value_main.62:
..LN244:
#       printf(const char *, ...)
        call      printf                                        #46.3
..___tag_value_main.63:
..LN245:
                                # LOE r13d r14d r15d bl
..B1.40:                        # Preds ..B1.39
                                # Execution count [2.17e+00]
..LN246:
        movl      $.L_2__STRING.1, %edi                         #46.3
..LN247:
        xorl      %eax, %eax                                    #46.3
..LN248:
        movl      40(%rsp), %esi                                #46.3
..___tag_value_main.64:
..LN249:
#       printf(const char *, ...)
        call      printf                                        #46.3
..___tag_value_main.65:
..LN250:
                                # LOE r13d r14d r15d bl
..B1.41:                        # Preds ..B1.40
                                # Execution count [2.17e+00]
..LN251:
        movl      $.L_2__STRING.1, %edi                         #46.3
..LN252:
        xorl      %eax, %eax                                    #46.3
..LN253:
        movl      44(%rsp), %esi                                #46.3
..___tag_value_main.66:
..LN254:
#       printf(const char *, ...)
        call      printf                                        #46.3
..___tag_value_main.67:
..LN255:
                                # LOE r13d r14d r15d bl
..B1.42:                        # Preds ..B1.41
                                # Execution count [2.17e+00]
..LN256:
	.loc    1  48  is_stmt 1
        movl      $.L_2__STRING.2, %edi                         #48.2
..LN257:
        xorl      %eax, %eax                                    #48.2
..LN258:
        movl      52(%rsp), %esi                                #48.2
..___tag_value_main.68:
..LN259:
#       printf(const char *, ...)
        call      printf                                        #48.2
..___tag_value_main.69:
..LN260:
                                # LOE r13d r14d r15d bl
..B1.43:                        # Preds ..B1.42
                                # Execution count [2.17e+00]
..L70:
                # optimization report
                # LOOP WAS COMPLETELY UNROLLED BY 6
                # %s was not vectorized: vector dependence prevents vectorization%s
                # VECTOR TRIP COUNT IS KNOWN CONSTANT
..LN261:
	.loc    1  49  is_stmt 1
..LN262:
	.loc    1  50  is_stmt 1
        movl      $.L_2__STRING.1, %edi                         #50.3
..LN263:
        xorl      %eax, %eax                                    #50.3
..LN264:
        movl      (%rsp), %esi                                  #50.3
..___tag_value_main.71:
..LN265:
#       printf(const char *, ...)
        call      printf                                        #50.3
..___tag_value_main.72:
..LN266:
                                # LOE r13d r14d r15d bl
..B1.44:                        # Preds ..B1.43
                                # Execution count [2.17e+00]
..LN267:
        movl      $.L_2__STRING.1, %edi                         #50.3
..LN268:
        xorl      %eax, %eax                                    #50.3
..LN269:
        movl      4(%rsp), %esi                                 #50.3
..___tag_value_main.73:
..LN270:
#       printf(const char *, ...)
        call      printf                                        #50.3
..___tag_value_main.74:
..LN271:
                                # LOE r13d r14d r15d bl
..B1.45:                        # Preds ..B1.44
                                # Execution count [2.17e+00]
..LN272:
        movl      $.L_2__STRING.1, %edi                         #50.3
..LN273:
        xorl      %eax, %eax                                    #50.3
..LN274:
        movl      8(%rsp), %esi                                 #50.3
..___tag_value_main.75:
..LN275:
#       printf(const char *, ...)
        call      printf                                        #50.3
..___tag_value_main.76:
..LN276:
                                # LOE r13d r14d r15d bl
..B1.46:                        # Preds ..B1.45
                                # Execution count [2.17e+00]
..LN277:
        movl      $.L_2__STRING.1, %edi                         #50.3
..LN278:
        xorl      %eax, %eax                                    #50.3
..LN279:
        movl      12(%rsp), %esi                                #50.3
..___tag_value_main.77:
..LN280:
#       printf(const char *, ...)
        call      printf                                        #50.3
..___tag_value_main.78:
..LN281:
                                # LOE r13d r14d r15d bl
..B1.47:                        # Preds ..B1.46
                                # Execution count [2.17e+00]
..LN282:
        movl      $.L_2__STRING.1, %edi                         #50.3
..LN283:
        xorl      %eax, %eax                                    #50.3
..LN284:
        movl      16(%rsp), %esi                                #50.3
..___tag_value_main.79:
..LN285:
#       printf(const char *, ...)
        call      printf                                        #50.3
..___tag_value_main.80:
..LN286:
                                # LOE r13d r14d r15d bl
..B1.48:                        # Preds ..B1.47
                                # Execution count [2.17e+00]
..LN287:
        movl      $.L_2__STRING.1, %edi                         #50.3
..LN288:
        xorl      %eax, %eax                                    #50.3
..LN289:
        movl      20(%rsp), %esi                                #50.3
..___tag_value_main.81:
..LN290:
#       printf(const char *, ...)
        call      printf                                        #50.3
..___tag_value_main.82:
..LN291:
                                # LOE r13d r14d r15d bl
..B1.49:                        # Preds ..B1.48
                                # Execution count [2.17e+00]
..LN292:
	.loc    1  52  is_stmt 1
        movl      $.L_2__STRING.3, %edi                         #52.2
..LN293:
        xorl      %eax, %eax                                    #52.2
..LN294:
        movl      48(%rsp), %esi                                #52.2
..___tag_value_main.83:
..LN295:
#       printf(const char *, ...)
        call      printf                                        #52.2
..___tag_value_main.84:
..LN296:
                                # LOE r13d r14d r15d bl
..B1.50:                        # Preds ..B1.33 ..B1.49
                                # Execution count [2.17e+00]
..LN297:
	.loc    1  183  is_stmt 1
        movl      48(%rsp), %ecx                                #183.6
..LN298:
        movl      52(%rsp), %esi                                #183.27
..LN299:
                                # LOE ecx esi r13d r14d r15d bl
..B1.51:                        # Preds ..B1.50
                                # Execution count [4.33e+00]
..LN300:
        lea       (%rcx,%rsi), %eax                             #183.27
..LN301:
        cmpl      $24, %eax                                     #183.48
..LN302:
        jle       ..B1.58       # Prob 28%                      #183.48
..LN303:
                                # LOE ecx esi r13d r14d r15d bl
..B1.52:                        # Preds ..B1.51
                                # Execution count [3.12e+00]
..LN304:
	.loc    1  184  is_stmt 1
        movl      %ecx, %eax                                    #184.7
..LN305:
        negl      %eax                                          #184.7
..LN306:
        addl      $48, %eax                                     #184.7
..LN307:
        subl      %esi, %eax                                    #184.7
..LN308:
        cmpl      $6, %eax                                      #184.51
..LN309:
        jle       ..B1.70       # Prob 28%                      #184.51
..LN310:
                                # LOE ecx esi r13d r14d r15d bl
..B1.53:                        # Preds ..B1.52
                                # Execution count [2.25e+00]
..LN311:
	.loc    1  187  is_stmt 1
        cmpl      $25, %ecx                                     #187.29
..LN312:
        jge       ..B1.70       # Prob 28%                      #187.29
..LN313:
                                # LOE esi r13d r14d r15d bl
..B1.54:                        # Preds ..B1.53
                                # Execution count [1.62e+00]
..LN314:
	.loc    1  188  is_stmt 1
        cmpl      $25, %esi                                     #188.29
..LN315:
        jge       ..B1.70       # Prob 50%                      #188.29
..LN316:
                                # LOE r13d r14d r15d bl
..B1.58:                        # Preds ..B1.68 ..B1.54 ..B1.51
                                # Execution count [2.25e+00]
..LN317:
	.loc    1  518  is_stmt 1
        testl     %r14d, %r14d                                  #518.13
..LN318:
        je        ..B1.82       # Prob 50%                      #518.13
..LN319:
                                # LOE r13d r15d bl
..B1.59:                        # Preds ..B1.58
                                # Execution count [1.30e+00]
..L85:
                # optimization report
                # %s was not vectorized: inner loop was already vectorized
..LN320:
	.loc    1  468  is_stmt 1
        xorl      %r14d, %r14d                                  #468.2
..LN321:
	.loc    1  518  is_stmt 1
        movl      $0, 60(%rsp)                                  #518.3
..LN322:
                                # LOE r13d r14d r15d bl
..B1.60:                        # Preds ..B1.11 ..B1.59
                                # Execution count [1.22e+00]
..LN323:
	.loc    1  472  is_stmt 1
        movl      $17, %esi                                     #472.9
..LN324:
        lea       (%rsp), %rdi                                  #472.9
..LN325:
        movl      %r15d, %edx                                   #472.9
..___tag_value_main.86:
..LN326:
#       decisionAB(Position *, int, bool)
        call      _Z10decisionABP3Posib                         #472.9
..___tag_value_main.87:
..LN327:
                                # LOE eax r13d r14d r15d bl
..B1.90:                        # Preds ..B1.60
                                # Execution count [1.22e+00]
..LN328:
        movl      %eax, %r12d                                   #472.9
..LN329:
                                # LOE r12d r13d r14d r15d bl
..B1.61:                        # Preds ..B1.90
                                # Execution count [1.22e+00]
..LN330:
        movl      %r12d, 56(%rsp)                               #472.4
..LN331:
	.loc    1  473  is_stmt 1
        testl     %r15d, %r15d                                  #473.9
..LN332:
        jne       ..B1.63       # Prob 50%                      #473.9
..LN333:
                                # LOE r12d r13d r14d r15d bl
..B1.62:                        # Preds ..B1.61
                                # Execution count [6.11e-01]
..LN334:
        cmpl      $48, VALMM(%rip)                              #473.29
..LN335:
        cmove     %r13d, %r15d                                  #473.29
..LN336:
                                # LOE r12d r13d r14d r15d bl
..B1.63:                        # Preds ..B1.62 ..B1.61
                                # Execution count [1.22e+00]
..LN337:
	.loc    1  478  is_stmt 1
        movl      %r12d, %esi                                   #478.10
..LN338:
	.loc    1  482  is_stmt 1
        movl      $.L_2__STRING.11, %edi                        #482.4
..LN339:
	.loc    1  478  is_stmt 1
        negl      %esi                                          #478.10
..LN340:
	.loc    1  482  is_stmt 1
        xorl      %eax, %eax                                    #482.4
..LN341:
	.loc    1  478  is_stmt 1
        lea       6(%rsi), %r8d                                 #478.10
..LN342:
	.loc    1  482  is_stmt 1
        addl      $12, %esi                                     #482.4
..LN343:
        testb     %bl, %bl                                      #482.4
..LN344:
        cmovne    %r8d, %esi                                    #482.4
..___tag_value_main.88:
..LN345:
#       printf(const char *, ...)
        call      printf                                        #482.4
..___tag_value_main.89:
..LN346:
                                # LOE r12d r13d r14d r15d bl
..B1.64:                        # Preds ..B1.63
                                # Execution count [1.22e+00]
..LN347:
	.loc    1  484  is_stmt 1
        xorl      %edx, %edx                                    #484.4
..LN348:
        lea       64(%rsp), %rdi                                #484.4
..LN349:
        movl      %r12d, %ecx                                   #484.4
..LN350:
        lea       (%rsp), %rsi                                  #484.4
..LN351:
	.loc    1  483  is_stmt 1
        movq      $0, NUM_MINIMAX(%rip)                         #483.4
..___tag_value_main.90:
..LN352:
	.loc    1  484  is_stmt 1
#       jouer_coup(Position *, Position *, int, int)
        call      _Z10jouer_coupP3PosS0_ii                      #484.4
..___tag_value_main.91:
..LN353:
                                # LOE r13d r14d r15d bl
..B1.65:                        # Preds ..B1.64
                                # Execution count [1.22e+00]
..L93:
                # optimization report
                # LOOP WAS COMPLETELY UNROLLED BY 2
                # REMAINDER LOOP FOR VECTORIZATION
..L92:
                # optimization report
                # LOOP WAS VECTORIZED
                # VECTORIZATION HAS UNALIGNED MEMORY REFERENCES
                # VECTORIZATION SPEEDUP COEFFECIENT 1.680664
                # LOOP HAS ONE VECTOR ITERATION
                # VECTOR LENGTH 4
                # MAIN VECTOR TYPE: 32-bits integer
..LN354:
	.loc    1  108  is_stmt 1
..LN355:
	.loc    1  110  is_stmt 1
        movl      104(%rsp), %ecx                               #110.24
..LN356:
	.loc    1  109  is_stmt 1
        movl      84(%rsp), %esi                                #109.24
..LN357:
	.loc    1  110  is_stmt 1
        movl      %ecx, 40(%rsp)                                #110.3
..LN358:
	.loc    1  109  is_stmt 1
        movl      %esi, 20(%rsp)                                #109.3
..LN359:
	.loc    1  112  is_stmt 1
        movl      112(%rsp), %ecx                               #112.24
..LN360:
	.loc    1  113  is_stmt 1
        movl      116(%rsp), %esi                               #113.24
..LN361:
	.loc    1  110  is_stmt 1
        movdqu    88(%rsp), %xmm1                               #110.24
..LN362:
	.loc    1  109  is_stmt 1
        movdqu    64(%rsp), %xmm0                               #109.24
..LN363:
	.loc    1  183  is_stmt 1
        lea       (%rcx,%rsi), %r8d                             #183.27
..LN364:
	.loc    1  109  is_stmt 1
        movl      80(%rsp), %eax                                #109.24
..LN365:
	.loc    1  110  is_stmt 1
        movl      108(%rsp), %edi                               #110.24
..LN366:
	.loc    1  109  is_stmt 1
        movdqu    %xmm0, (%rsp)                                 #109.3
..LN367:
	.loc    1  110  is_stmt 1
        movdqu    %xmm1, 24(%rsp)                               #110.3
..LN368:
	.loc    1  109  is_stmt 1
        movl      %eax, 16(%rsp)                                #109.3
..LN369:
	.loc    1  110  is_stmt 1
        movl      %edi, 44(%rsp)                                #110.3
..LN370:
	.loc    1  112  is_stmt 1
        movl      %ecx, 48(%rsp)                                #112.2
..LN371:
	.loc    1  113  is_stmt 1
        movl      %esi, 52(%rsp)                                #113.2
..LN372:
	.loc    1  183  is_stmt 1
        cmpl      $24, %r8d                                     #183.48
..LN373:
        jle       ..B1.82       # Prob 28%                      #183.48
..LN374:
                                # LOE ecx esi r13d r14d r15d bl
..B1.66:                        # Preds ..B1.65
                                # Execution count [8.80e-01]
..LN375:
	.loc    1  184  is_stmt 1
        movl      %ecx, %eax                                    #184.7
..LN376:
        negl      %eax                                          #184.7
..LN377:
        addl      $48, %eax                                     #184.7
..LN378:
        subl      %esi, %eax                                    #184.7
..LN379:
        cmpl      $6, %eax                                      #184.51
..LN380:
        jle       ..B1.75       # Prob 28%                      #184.51
..LN381:
                                # LOE ecx esi r13d r14d r15d bl
..B1.67:                        # Preds ..B1.66
                                # Execution count [6.34e-01]
..LN382:
	.loc    1  187  is_stmt 1
        cmpl      $25, %ecx                                     #187.29
..LN383:
        jge       ..B1.75       # Prob 28%                      #187.29
..LN384:
                                # LOE esi r13d r14d r15d bl
..B1.68:                        # Preds ..B1.67
                                # Execution count [4.56e-01]
..LN385:
	.loc    1  188  is_stmt 1
        cmpl      $25, %esi                                     #188.29
..LN386:
        jl        ..B1.58       # Prob 50%                      #188.29
..LN387:
                                # LOE r13d r14d r15d bl
..B1.70:                        # Preds ..B1.53 ..B1.68 ..B1.52 ..B1.54
                                # Execution count [2.54e+00]
..LN388:
	.loc    1  518  is_stmt 1
        testl     %r14d, %r14d                                  #518.13
..LN389:
        je        ..B1.75       # Prob 50%                      #518.13
..LN390:
                                # LOE r12
..B1.71:                        # Preds ..B1.70
                                # Execution count [1.48e+00]
..LN391:
        movl      $0, 60(%rsp)                                  #518.3
..LN392:
        jmp       ..B1.76       # Prob 100%                     #518.3
..LN393:
                                # LOE r12
..B1.75:                        # Preds ..B1.67 ..B1.66 ..B1.70
                                # Execution count [1.48e+00]
..LN394:
        movl      $1, 60(%rsp)                                  #518.3
..LN395:
                                # LOE r12
..B1.76:                        # Preds ..B1.71 ..B1.75
                                # Execution count [1.00e+00]
..___tag_value_main.94:
..LN396:
	.loc    1  521  is_stmt 1
#       std::chrono::_V2::system_clock::now()
        call      _ZNSt6chrono3_V212system_clock3nowEv          #521.11
..___tag_value_main.95:
..LN397:
                                # LOE rax r12
..B1.91:                        # Preds ..B1.76
                                # Execution count [1.00e+00]
..LN398:
        movq      %rax, %rdx                                    #521.11
..LN399:
        movq      %rdx, 144(%rsp)                               #521.11
..LN400:
                                # LOE rdx r12
..B1.77:                        # Preds ..B1.91
                                # Execution count [1.00e+00]
..LN401:
	.loc    1  523  is_stmt 1
        movq      128(%rsp), %rax                               #523.13
..LN402:
        subq      %rax, %rdx                                    #523.13
..LN403:
        pxor      %xmm0, %xmm0                                  #523.13
..LN404:
        movl      $_ZSt4cout, %edi                              #523.13
..LN405:
        cvtsi2sdq %rdx, %xmm0                                   #523.13
..LN406:
        divsd     .L_2il0floatpacket.5(%rip), %xmm0             #523.13
..___tag_value_main.96:
..LN407:
#       std::basic_ostream<char, std::char_traits<char>>::operator<<(std::basic_ostream<char, std::char_traits<char>> *, double)
        call      _ZNSolsEd                                     #523.13
..___tag_value_main.97:
..LN408:
                                # LOE rax r12
..B1.78:                        # Preds ..B1.77
                                # Execution count [1.00e+00]
..LN409:
        movq      %rax, %rdi                                    #523.40
..LN410:
        movl      $_ZSt4endlIcSt11char_traitsIcEERSt13basic_ostreamIT_T0_ES6_, %esi #523.40
..___tag_value_main.98:
..LN411:
#       std::basic_ostream<char, std::char_traits<char>>::operator<<(std::basic_ostream<char, std::char_traits<char>> *, std::basic_ostream<char, std::char_traits<char>>::__ostream_type &(*)(std::basic_ostream<char, std::char_traits<char>>::__ostream_type &))
        call      _ZNSolsEPFRSoS_E                              #523.40
..___tag_value_main.99:
..LN412:
                                # LOE r12
..B1.79:                        # Preds ..B1.78
                                # Execution count [1.00e+00]
..LN413:
	.loc    1  524  is_stmt 1
        movl      $.2.87_2_kmpc_loc_struct_pack.98, %edi        #524.1
..LN414:
        xorl      %eax, %eax                                    #524.1
..___tag_value_main.100:
..LN415:
        call      __kmpc_end                                    #524.1
..___tag_value_main.101:
..LN416:
                                # LOE r12
..B1.80:                        # Preds ..B1.79
                                # Execution count [1.00e+00]
..LN417:
        xorl      %eax, %eax                                    #524.1
..LN418:
	.loc    1  524  epilogue_begin  is_stmt 1
        addq      $216, %rsp                                    #524.1
	.cfi_restore 3
..LN419:
        popq      %rbx                                          #524.1
	.cfi_restore 15
..LN420:
        popq      %r15                                          #524.1
	.cfi_restore 14
..LN421:
        popq      %r14                                          #524.1
	.cfi_restore 13
..LN422:
        popq      %r13                                          #524.1
	.cfi_restore 12
..LN423:
        popq      %r12                                          #524.1
..LN424:
        movq      %rbp, %rsp                                    #524.1
..LN425:
        popq      %rbp                                          #524.1
	.cfi_def_cfa 7, 8
	.cfi_restore 6
..LN426:
        ret                                                     #524.1
	.cfi_def_cfa 6, 16
	.cfi_escape 0x10, 0x03, 0x0e, 0x38, 0x1c, 0x0d, 0x80, 0xff, 0xff, 0xff, 0x1a, 0x0d, 0xd8, 0xff, 0xff, 0xff, 0x22
	.cfi_offset 6, -16
	.cfi_escape 0x10, 0x0c, 0x0e, 0x38, 0x1c, 0x0d, 0x80, 0xff, 0xff, 0xff, 0x1a, 0x0d, 0xf8, 0xff, 0xff, 0xff, 0x22
	.cfi_escape 0x10, 0x0d, 0x0e, 0x38, 0x1c, 0x0d, 0x80, 0xff, 0xff, 0xff, 0x1a, 0x0d, 0xf0, 0xff, 0xff, 0xff, 0x22
	.cfi_escape 0x10, 0x0e, 0x0e, 0x38, 0x1c, 0x0d, 0x80, 0xff, 0xff, 0xff, 0x1a, 0x0d, 0xe8, 0xff, 0xff, 0xff, 0x22
	.cfi_escape 0x10, 0x0f, 0x0e, 0x38, 0x1c, 0x0d, 0x80, 0xff, 0xff, 0xff, 0x1a, 0x0d, 0xe0, 0xff, 0xff, 0xff, 0x22
..LN427:
                                # LOE
..B1.82:                        # Preds ..B1.65 ..B1.58
                                # Execution count [1.30e+00]
..L117:
                # optimization report
                # %s was not vectorized: inner loop was already vectorized
..LN428:
	.loc    1  468  is_stmt 1
..LN429:
	.loc    1  518  is_stmt 1
        movl      $1, 60(%rsp)                                  #518.3
..LN430:
	.loc    1  494  is_stmt 1
        testb     %bl, %bl                                      #494.8
..LN431:
        je        ..B1.14       # Prob 50%                      #494.8
..LN432:
                                # LOE r13d r15d bl
..B1.83:                        # Preds ..B1.82
                                # Execution count [2.17e+00]
..LN433:
	.loc    1  495  is_stmt 1
        movl      $il0_peep_printf_format_6, %edi               #495.5
..LN434:
        call      puts                                          #495.5
..LN435:
                                # LOE r13d r15d bl
..B1.84:                        # Preds ..B1.83
                                # Execution count [2.17e+00]
..LN436:
	.loc    1  496  is_stmt 1
        movl      $.L_2__STRING.9, %edi                         #496.8
..LN437:
        lea       56(%rsp), %rsi                                #496.8
..LN438:
        xorl      %eax, %eax                                    #496.8
..LN439:
#       scanf(const char *, ...)
        call      scanf                                         #496.8
..LN440:
                                # LOE r13d r15d bl
..B1.85:                        # Preds ..B1.84
                                # Execution count [2.17e+00]
..LN441:
	.loc    1  497  is_stmt 1
        movl      56(%rsp), %ecx                                #497.5
..LN442:
        addl      $-7, %ecx                                     #497.5
..LN443:
        movl      %ecx, 56(%rsp)                                #497.5
..LN444:
        jmp       ..B1.17       # Prob 100%                     #497.5
        .align    16,0x90
..LN445:
                                # LOE ecx r13d r15d bl
..LN446:
	.cfi_endproc
# mark_end;
	.type	main,@function
	.size	main,.-main
..LNmain.447:
.LNmain:
	.data
	.align 4
	.align 4
.2.87_2_kmpc_loc_struct_pack.87:
	.long	0
	.long	2
	.long	0
	.long	0
	.quad	.2.87_2__kmpc_loc_pack.86
	.align 4
.2.87_2__kmpc_loc_pack.86:
	.byte	59
	.byte	117
	.byte	110
	.byte	107
	.byte	110
	.byte	111
	.byte	119
	.byte	110
	.byte	59
	.byte	109
	.byte	97
	.byte	105
	.byte	110
	.byte	59
	.byte	52
	.byte	50
	.byte	49
	.byte	59
	.byte	52
	.byte	50
	.byte	49
	.byte	59
	.byte	59
	.space 1, 0x00 	# pad
	.align 4
.2.87_2_kmpc_loc_struct_pack.98:
	.long	0
	.long	2
	.long	0
	.long	0
	.quad	.2.87_2__kmpc_loc_pack.97
	.align 4
.2.87_2__kmpc_loc_pack.97:
	.byte	59
	.byte	117
	.byte	110
	.byte	107
	.byte	110
	.byte	111
	.byte	119
	.byte	110
	.byte	59
	.byte	109
	.byte	97
	.byte	105
	.byte	110
	.byte	59
	.byte	53
	.byte	50
	.byte	52
	.byte	59
	.byte	53
	.byte	50
	.byte	52
	.byte	59
	.byte	59
	.section .rodata.str1.4, "aMS",@progbits,1
	.align 4
	.align 4
il0_peep_printf_format_0:
	.long	1430406468
	.long	1430528084
	.long	1430604320
	.long	1096237344
	.word	17740
	.byte	0
	.space 1, 0x00 	# pad
	.align 4
il0_peep_printf_format_1:
	.long	539570216
	.long	1919887212
	.long	1634625892
	.long	1920296308
	.long	1836016416
	.long	1668179309
	.word	101
	.space 2, 0x00 	# pad
	.align 4
il0_peep_printf_format_2:
	.long	539570472
	.long	1780508012
	.long	1969583471
	.long	1868767346
	.long	1852140909
	.word	25955
	.byte	0
	.space 1, 0x00 	# pad
	.align 4
il0_peep_printf_format_4:
	.long	1936009027
	.long	1634738292
	.long	560559218
	.byte	0
	.space 3, 0x00 	# pad
	.align 4
il0_peep_printf_format_3:
	.long	1936009027
	.long	1634738292
	.long	560559218
	.byte	0
	.space 3, 0x00 	# pad
	.align 4
il0_peep_printf_format_5:
	.long	1701602675
	.long	1869182051
	.long	1919250030
	.long	1701737760
	.long	1935762208
	.long	540090469
	.long	540221490
	.long	540352564
	.word	54
	.space 2, 0x00 	# pad
	.align 4
il0_peep_printf_format_8:
	.long	757935405
	.long	757935405
	.long	757935405
	.long	757935405
	.long	757935405
	.long	757935405
	.word	11565
	.byte	0
	.space 1, 0x00 	# pad
	.align 4
il0_peep_printf_format_7:
	.long	757935405
	.long	757935405
	.long	757935405
	.long	757935405
	.long	757935405
	.long	757935405
	.word	11565
	.byte	0
	.space 1, 0x00 	# pad
	.align 4
il0_peep_printf_format_6:
	.long	1701602675
	.long	1869182051
	.long	1919250030
	.long	1701737760
	.long	1935762208
	.long	842080357
	.long	540094752
	.long	958410801
	.long	924858400
	.byte	0
	.data
	.file   2 "/usr/include/x86_64-linux-gnu/c++/7/bits/c++config.h"
	.file   3 "/usr/include/c++/7/bits/exception_ptr.h"
	.file   4 "/usr/include/c++/7/type_traits"
	.file   5 "/usr/include/c++/7/debug/debug.h"
	.file   6 "/usr/include/c++/7/system_error"
	.file   7 "/usr/include/c++/7/chrono"
	.file   8 "/usr/include/c++/7/bits/stl_relops.h"
	.file   9 "/usr/include/c++/7/thread"
	.file   10 "/usr/include/c++/7/bits/predefined_ops.h"
	.file   11 "/usr/include/bits/stdint-intn.h"
	.file   12 "/usr/include/bits/types.h"
	.file   13 "/usr/include/c++/7/ratio"
	.file   14 "/usr/include/stdint.h"
	.file   15 "/usr/include/bits/types/time_t.h"
	.file   16 "sources/minimax_graph_parallel.h"
# -- End  main
	.text
.L_2__routine_start__Z10decisionABP3Posib_1:
# -- Begin  _Z10decisionABP3Posib, L__Z10decisionABP3Posib_395__par_loop0_2.6
	.text
# mark_begin;
       .align    16,0x90
	.globl _Z10decisionABP3Posib
# --- decisionAB(Position *, int, bool)
_Z10decisionABP3Posib:
# parameter 1(pos): %rdi
# parameter 2(pmax): %esi
# parameter 3(gagne): %edx
..B2.1:                         # Preds ..B2.0
                                # Execution count [1.00e+00]
..L126:
                # optimization report
                # LOOP WAS COMPLETELY UNROLLED BY 6
                # %s was not vectorized: vectorization possible but seems inefficient. Use vector always directive or -vec-threshold0 to override 
                # VECTORIZATION SPEEDUP COEFFECIENT 1.357422
                # VECTOR TRIP COUNT IS KNOWN CONSTANT
                # VECTOR LENGTH 4
                # NORMALIZED VECTORIZATION OVERHEAD 2.750000
..LN448:
	.loc    1  361  is_stmt 1
	.cfi_startproc
	.cfi_personality 0x3,__gxx_personality_v0
..___tag_value__Z10decisionABP3Posib.122:
..L123:
                                                        #357.51
..LN449:
	.loc    1  357  is_stmt 1
        subq      $472, %rsp                                    #357.51
	.cfi_def_cfa_offset 480
..LN450:
        movq      %r15, 384(%rsp)                               #357.51[spill]
	.cfi_offset 15, -96
..LN451:
        movq      %rdi, %r15                                    #357.51
..LN452:
        movb      %dl, 456(%rsp)                                #357.51
..LN453:
	.loc    1  362  prologue_end  is_stmt 1
        xorl      %edx, %edx                                    #362.31
..LN454:
	.loc    1  357  is_stmt 1
        movq      %rbp, 424(%rsp)                               #357.51[spill]
..LN455:
        movq      %rbx, 416(%rsp)                               #357.51[spill]
..LN456:
	.loc    1  362  is_stmt 1
        cmpl      $1, (%r15)                                    #362.31
..LN457:
	.loc    1  357  is_stmt 1
        movq      %r14, 392(%rsp)                               #357.51[spill]
..LN458:
	.loc    1  362  is_stmt 1
        setb      %dl                                           #362.31
..LN459:
        cmpl      $1, 4(%r15)                                   #362.31
..LN460:
	.loc    1  357  is_stmt 1
        movq      %r13, 400(%rsp)                               #357.51[spill]
..LN461:
	.loc    1  362  is_stmt 1
        adcl      $0, %edx                                      #362.31
..LN462:
        cmpl      $1, 8(%r15)                                   #362.31
..LN463:
	.loc    1  357  is_stmt 1
        movq      %r12, 408(%rsp)                               #357.51[spill]
..LN464:
	.loc    1  362  is_stmt 1
        adcl      $0, %edx                                      #362.31
..LN465:
        cmpl      $1, 12(%r15)                                  #362.31
..LN466:
	.loc    1  357  is_stmt 1
        movq      %r15, 432(%rsp)                               #357.51
..LN467:
	.loc    1  362  is_stmt 1
        adcl      $0, %edx                                      #362.31
..LN468:
        cmpl      $1, 16(%r15)                                  #362.31
..LN469:
	.loc    1  357  is_stmt 1
        movl      %esi, 440(%rsp)                               #357.51
..LN470:
	.loc    1  362  is_stmt 1
        adcl      $0, %edx                                      #362.31
..LN471:
        cmpl      $1, 20(%r15)                                  #362.31
..LN472:
        adcl      $0, %edx                                      #362.31
..LN473:
	.loc    1  366  is_stmt 1
        testl     %edx, %edx                                    #366.9
..LN474:
        jle       ..B2.69       # Prob 16%                      #366.9
	.cfi_offset 3, -64
	.cfi_offset 6, -56
	.cfi_offset 12, -72
	.cfi_offset 13, -80
	.cfi_offset 14, -88
..LN475:
                                # LOE r15 edx esi
..B2.2:                         # Preds ..B2.1
                                # Execution count [8.40e-01]
..LN476:
	.loc    1  367  is_stmt 1
        movl      52(%r15), %eax                                #367.7
..LN477:
        addl      48(%r15), %eax                                #367.28
..LN478:
        cmpl      $20, %eax                                     #367.50
..LN479:
        jl        ..B2.5        # Prob 50%                      #367.50
..LN480:
                                # LOE r15 eax edx esi
..B2.3:                         # Preds ..B2.2
                                # Execution count [4.20e-01]
..LN481:
        lea       1(%rsi), %r14d                                #367.54
..LN482:
        movl      %r14d, 440(%rsp)                              #367.54
..LN483:
	.loc    1  368  is_stmt 1
        cmpl      $25, %eax                                     #368.50
..LN484:
        jl        ..B2.6        # Prob 50%                      #368.50
..LN485:
                                # LOE r15 edx esi r14d
..B2.4:                         # Preds ..B2.3
                                # Execution count [4.20e-01]
..LN486:
        lea       2(%rsi), %r14d                                #368.54
..LN487:
        movl      %r14d, 440(%rsp)                              #368.54
..LN488:
        jmp       ..B2.6        # Prob 100%                     #368.54
..LN489:
                                # LOE r15 edx r14d
..B2.5:                         # Preds ..B2.2
                                # Execution count [4.20e-01]
..LN490:
        movl      440(%rsp), %r14d                              #368.54
..LN491:
                                # LOE r15 edx r14d
..B2.6:                         # Preds ..B2.5 ..B2.4 ..B2.3
                                # Execution count [8.40e-01]
..LN492:
	.loc    1  370  is_stmt 1
        cmpl      $3, %edx                                      #370.12
..LN493:
        jg        ..B2.8        # Prob 50%                      #370.12
..LN494:
                                # LOE r15 edx r14d
..B2.7:                         # Preds ..B2.6
                                # Execution count [4.20e-01]
..LN495:
        incl      %r14d                                         #370.15
..LN496:
        movl      %r14d, 440(%rsp)                              #370.15
..LN497:
        cmpl      $3, %edx                                      #370.12
..LN498:
                                # LOE r15 r14d
..B2.8:                         # Preds ..B2.7 ..B2.6
                                # Execution count [8.40e-01]
..LN499:
	.loc    1  371  is_stmt 1
        jle       ..B2.10       # Prob 50%                      #371.11
..LN500:
                                # LOE r15 r14d
..B2.9:                         # Preds ..B2.8
                                # Execution count [4.20e-01]
..LN501:
        addl      $2, %r14d                                     #371.14
..LN502:
        movl      %r14d, 440(%rsp)                              #371.14
..LN503:
                                # LOE r15 r14d
..B2.10:                        # Preds ..B2.9 ..B2.8 ..B2.69
                                # Execution count [1.00e+00]
..L139:
                # optimization report
                # LOOP WAS COMPLETELY UNROLLED BY 7
                # %s was not vectorized: vectorization possible but seems inefficient. Use vector always directive or -vec-threshold0 to override 
                # VECTORIZATION SPEEDUP COEFFECIENT 0.666992
                # VECTOR TRIP COUNT IS KNOWN CONSTANT
                # VECTOR LENGTH 2
..LN504:
	.loc    1  379  is_stmt 1
..LN505:
	.loc    1  374  is_stmt 1
        movl      $-98, %ebx                                    #374.11
..LN506:
	.loc    1  383  is_stmt 1
        xorl      %ebp, %ebp                                    #383.3
..LN507:
	.loc    1  374  is_stmt 1
        movl      %ebx, 448(%rsp)                               #374.11
..LN508:
	.loc    1  327  is_stmt 1
        lea       -1(%r14), %r13d                               #327.5
..LN509:
	.loc    1  375  is_stmt 1
        movl      $98, 444(%rsp)                                #375.10
..LN510:
	.loc    1  380  is_stmt 1
        movl      %ebx, (%rsp)                                  #380.5
..LN511:
        movl      %ebx, 64(%rsp)                                #380.5
..LN512:
        movl      %ebx, 128(%rsp)                               #380.5
..LN513:
        movl      %ebx, 192(%rsp)                               #380.5
..LN514:
        movl      %ebx, 256(%rsp)                               #380.5
..LN515:
        movl      %ebx, 320(%rsp)                               #380.5
..LN516:
	.loc    1  386  is_stmt 1
        movzbl    456(%rsp), %r12d                              #386.55
..LN517:
                                # LOE r15 ebx ebp r12d r13d r14d
..B2.11:                        # Preds ..B2.27 ..B2.10
                                # Execution count [5.92e+00]
..L140:
                # optimization report
                # %s was not vectorized: loop with multiple exits cannot be vectorized unless it meets search loop idiom criteria
                # VECTOR TRIP COUNT IS KNOWN CONSTANT
..LN518:
	.loc    1  383  is_stmt 1
..LN519:
	.loc    1  385  is_stmt 1
        movq      %r15, %rsi                                    #385.7
..LN520:
        lea       324(%rsp), %rdi                               #385.7
..LN521:
        xorl      %edx, %edx                                    #385.7
..LN522:
        movl      %ebp, %ecx                                    #385.7
..___tag_value__Z10decisionABP3Posib.141:
..LN523:
#       jouer_coup(Position *, Position *, int, int)
        call      _Z10jouer_coupP3PosS0_ii                      #385.7
..___tag_value__Z10decisionABP3Posib.142:
..LN524:
                                # LOE r15 eax ebx ebp r12d r13d r14d
..B2.12:                        # Preds ..B2.11
                                # Execution count [5.92e+00]
..LN525:
        testl     %eax, %eax                                    #385.7
..LN526:
        je        ..B2.27       # Prob 78%                      #385.7
..LN527:
                                # LOE r15 ebx ebp r12d r13d r14d
..B2.13:                        # Preds ..B2.12
                                # Execution count [1.30e+00]
..LN528:
	.loc    1  333  is_stmt 1
        movl      372(%rsp), %edi                               #333.6
..LN529:
	.loc    1  330  is_stmt 1
        testl     %r12d, %r12d                                  #330.16
..LN530:
	.loc    1  333  is_stmt 1
        movl      376(%rsp), %r10d                              #333.27
..LN531:
	.loc    1  330  is_stmt 1
        movl      %r12d, %r11d                                  #330.16
..LN532:
        cmovne    %r13d, %r11d                                  #330.16
..LN533:
	.loc    1  329  is_stmt 1
        incq      NUM_MINIMAX(%rip)                             #329.2
..LN534:
	.loc    1  333  is_stmt 1
        lea       (%rdi,%r10), %eax                             #333.27
..LN535:
        cmpl      $24, %eax                                     #333.48
..LN536:
        jle       ..B2.22       # Prob 50%                      #333.48
..LN537:
                                # LOE r15 ebx ebp edi r10d r11d r12d r13d r14d
..B2.14:                        # Preds ..B2.13
                                # Execution count [6.51e-01]
..LN538:
	.loc    1  334  is_stmt 1
        movl      %edi, %eax                                    #334.7
..LN539:
        negl      %eax                                          #334.7
..LN540:
        addl      $48, %eax                                     #334.7
..LN541:
        subl      %r10d, %eax                                   #334.7
..LN542:
        cmpl      $6, %eax                                      #334.51
..LN543:
        jg        ..B2.18       # Prob 50%                      #334.51
..LN544:
                                # LOE r15 ebx ebp edi r10d r11d r12d r13d r14d
..B2.15:                        # Preds ..B2.14
                                # Execution count [3.26e-01]
..LN545:
	.loc    1  335  is_stmt 1
        cmpl      %r10d, %edi                                   #335.29
..LN546:
        jg        ..B2.17       # Prob 28%                      #335.29
..LN547:
                                # LOE r15 ebp edi r10d r11d r12d r13d r14d
..B2.16:                        # Preds ..B2.15
                                # Execution count [2.34e-01]
..LN548:
	.loc    1  340  is_stmt 1
        negl      %r11d                                         #340.64
..LN549:
	.loc    1  386  is_stmt 1
        xorl      %ebx, %ebx                                    #386.10
..LN550:
	.loc    1  340  is_stmt 1
        addl      $-48, %r11d                                   #340.64
..LN551:
	.loc    1  386  is_stmt 1
        cmpl      %r10d, %edi                                   #386.10
..LN552:
        cmovl     %r11d, %ebx                                   #386.10
..LN553:
        jmp       ..B2.26       # Prob 100%                     #386.10
..LN554:
                                # LOE r15 ebx ebp r12d r13d r14d
..B2.17:                        # Preds ..B2.18 ..B2.15
                                # Execution count [9.12e-02]
..LN555:
	.loc    1  338  is_stmt 1
        lea       48(%r11), %ebx                                #338.21
..LN556:
        jmp       ..B2.26       # Prob 100%                     #338.21
..LN557:
                                # LOE r15 ebx ebp r12d r13d r14d
..B2.18:                        # Preds ..B2.14
                                # Execution count [3.26e-01]
..LN558:
	.loc    1  343  is_stmt 1
        cmpl      $25, %edi                                     #343.29
..LN559:
        jge       ..B2.17       # Prob 28%                      #343.29
..LN560:
                                # LOE r15 ebx ebp edi r10d r11d r12d r13d r14d
..B2.19:                        # Preds ..B2.18
                                # Execution count [2.34e-01]
..LN561:
	.loc    1  347  is_stmt 1
        cmpl      $25, %r10d                                    #347.29
..LN562:
        jl        ..B2.22       # Prob 72%                      #347.29
..LN563:
                                # LOE r15 ebx ebp edi r10d r11d r12d r13d r14d
..B2.20:                        # Preds ..B2.19
                                # Execution count [6.56e-02]
..LN564:
        negl      %r11d                                         #347.48
..LN565:
        lea       -48(%r11), %ebx                               #347.48
..LN566:
        jmp       ..B2.26       # Prob 100%                     #347.48
..LN567:
                                # LOE r15 ebx ebp r12d r13d r14d
..B2.22:                        # Preds ..B2.19 ..B2.13
                                # Execution count [8.20e-01]
..LN568:
	.loc    1  349  is_stmt 1
        cmpl      $1, %r14d                                     #349.14
..LN569:
        jne       ..B2.24       # Prob 50%                      #349.14
..LN570:
                                # LOE r15 ebx ebp edi r10d r12d r13d r14d
..B2.23:                        # Preds ..B2.22
                                # Execution count [4.10e-01]
..LN571:
	.loc    1  179  is_stmt 1
        movl      %edi, %ebx                                    #179.9
..LN572:
        subl      %r10d, %ebx                                   #179.9
..LN573:
        jmp       ..B2.26       # Prob 100%                     #179.9
..LN574:
                                # LOE r15 ebx ebp r12d r13d r14d
..B2.24:                        # Preds ..B2.22
                                # Execution count [4.10e-01]
..LN575:
	.loc    1  350  is_stmt 1
        movl      $1, %esi                                      #350.9
..LN576:
        lea       324(%rsp), %rdi                               #350.9
..LN577:
        movl      %ebx, %edx                                    #350.9
..LN578:
        movl      $98, %ecx                                     #350.9
..LN579:
        movl      %r13d, %r8d                                   #350.9
..LN580:
        movl      %r12d, %r9d                                   #350.9
..___tag_value__Z10decisionABP3Posib.143:
..LN581:
#       calculer_coup(Position *, int, int, int, int, bool)
        call      _Z13calculer_coupP3Posiiiib                   #350.9
..___tag_value__Z10decisionABP3Posib.144:
..LN582:
                                # LOE r15 eax ebp r12d r13d r14d
..B2.73:                        # Preds ..B2.24
                                # Execution count [4.10e-01]
..LN583:
        movl      %eax, %ebx                                    #350.9
..LN584:
                                # LOE r15 ebx ebp r12d r13d r14d
..B2.26:                        # Preds ..B2.73 ..B2.23 ..B2.17 ..B2.16 ..B2.20
                                #      
                                # Execution count [1.30e+00]
..LN585:
	.loc    1  387  is_stmt 1
        movl      %ebp, %eax                                    #387.7
..LN586:
        shlq      $6, %rax                                      #387.7
..LN587:
	.loc    1  386  is_stmt 1
        movl      %ebx, 448(%rsp)                               #386.4
..LN588:
	.loc    1  387  is_stmt 1
        movl      %ebx, (%rsp,%rax)                             #387.7
..LN589:
	.loc    1  389  is_stmt 1
        cmpl      $4, %ebp                                      #389.17
..LN590:
        jl        ..B2.29       # Prob 1%                       #389.17
..LN591:
                                # LOE r15 ebx ebp r12d r13d r14d
..B2.27:                        # Preds ..B2.26 ..B2.12
                                # Execution count [5.90e+00]
..LN592:
	.loc    1  383  is_stmt 1
        incl      %ebp                                          #383.3
..LN593:
        cmpl      $6, %ebp                                      #383.3
..LN594:
        jb        ..B2.11       # Prob 83%                      #383.3
..LN595:
                                # LOE r15 ebx ebp r12d r13d r14d
..B2.29:                        # Preds ..B2.26 ..B2.27
                                # Execution count [1.00e+00]
..LN596:
	.loc    1  395  is_stmt 1
        movl      $.2.88_2_kmpc_loc_struct_pack.42, %edi        #395.3
..LN597:
        call      __kmpc_global_thread_num                      #395.3
..LN598:
                                # LOE eax
..B2.75:                        # Preds ..B2.29
                                # Execution count [1.00e+00]
..LN599:
        movl      %eax, 380(%rsp)                               #395.3
..LN600:
        movl      $.2.88_2_kmpc_loc_struct_pack.50, %edi        #395.3
..LN601:
        xorl      %eax, %eax                                    #395.3
..___tag_value__Z10decisionABP3Posib.145:
..LN602:
        call      __kmpc_ok_to_fork                             #395.3
..___tag_value__Z10decisionABP3Posib.146:
..LN603:
                                # LOE eax
..B2.30:                        # Preds ..B2.75
                                # Execution count [1.00e+00]
..LN604:
        testl     %eax, %eax                                    #395.3
..LN605:
        je        ..B2.32       # Prob 50%                      #395.3
..LN606:
                                # LOE
..B2.31:                        # Preds ..B2.30
                                # Execution count [0.00e+00]
..LN607:
        addq      $-32, %rsp                                    #395.3
	.cfi_def_cfa_offset 512
..LN608:
        movl      $L__Z10decisionABP3Posib_395__par_loop0_2.6, %edx #395.3
..LN609:
        movl      $.2.88_2_kmpc_loc_struct_pack.50, %edi        #395.3
..LN610:
        lea       476(%rsp), %rax                               #395.3
..LN611:
        movl      $6, %esi                                      #395.3
..LN612:
        lea       -12(%rax), %rcx                               #395.3
..LN613:
        lea       32(%rsp), %r8                                 #395.3
..LN614:
        movq      %rax, (%rsp)                                  #395.3
..LN615:
        lea       4(%rax), %r9                                  #395.3
..LN616:
        xorl      %eax, %eax                                    #395.3
..LN617:
        lea       8(%rcx), %rbx                                 #395.3
..LN618:
        movq      %rbx, 8(%rsp)                                 #395.3
..LN619:
        lea       24(%rcx), %rbp                                #395.3
..LN620:
        movq      %rbp, 16(%rsp)                                #395.3
..___tag_value__Z10decisionABP3Posib.148:
..LN621:
        call      __kmpc_fork_call                              #395.3
..___tag_value__Z10decisionABP3Posib.149:
..LN622:
                                # LOE
..B2.76:                        # Preds ..B2.31
                                # Execution count [0.00e+00]
..LN623:
        addq      $32, %rsp                                     #395.3
	.cfi_def_cfa_offset 480
..LN624:
        jmp       ..B2.35       # Prob 100%                     #395.3
..LN625:
                                # LOE
..B2.32:                        # Preds ..B2.30
                                # Execution count [0.00e+00]
..LN626:
        movl      $.2.88_2_kmpc_loc_struct_pack.50, %edi        #395.3
..LN627:
        xorl      %eax, %eax                                    #395.3
..LN628:
        movl      380(%rsp), %esi                               #395.3
..___tag_value__Z10decisionABP3Posib.151:
..LN629:
        call      __kmpc_serialized_parallel                    #395.3
..___tag_value__Z10decisionABP3Posib.152:
..LN630:
                                # LOE
..B2.33:                        # Preds ..B2.32
                                # Execution count [0.00e+00]
..LN631:
        movl      $___kmpv_zero_Z10decisionABP3Posib_0, %esi    #395.3
..LN632:
        lea       456(%rsp), %rax                               #395.3
..LN633:
        lea       -76(%rax), %rdi                               #395.3
..LN634:
        lea       -24(%rax), %rdx                               #395.3
..LN635:
        lea       (%rsp), %rcx                                  #395.3
..LN636:
        lea       -8(%rax), %r8                                 #395.3
..LN637:
        lea       -12(%rax), %r9                                #395.3
..LN638:
        lea       -16(%rax), %rbx                               #395.3
..LN639:
        pushq     %rax                                          #395.3
	.cfi_def_cfa_offset 488
..LN640:
        pushq     %rbx                                          #395.3
	.cfi_def_cfa_offset 496
..___tag_value__Z10decisionABP3Posib.155:
..LN641:
        call      L__Z10decisionABP3Posib_395__par_loop0_2.6    #395.3
..___tag_value__Z10decisionABP3Posib.156:
..LN642:
                                # LOE
..B2.77:                        # Preds ..B2.33
                                # Execution count [0.00e+00]
..LN643:
        addq      $16, %rsp                                     #395.3
	.cfi_def_cfa_offset 480
..LN644:
                                # LOE
..B2.34:                        # Preds ..B2.77
                                # Execution count [0.00e+00]
..LN645:
        movl      $.2.88_2_kmpc_loc_struct_pack.50, %edi        #395.3
..LN646:
        xorl      %eax, %eax                                    #395.3
..LN647:
        movl      380(%rsp), %esi                               #395.3
..___tag_value__Z10decisionABP3Posib.158:
..LN648:
        call      __kmpc_end_serialized_parallel                #395.3
..___tag_value__Z10decisionABP3Posib.159:
..LN649:
                                # LOE
..B2.35:                        # Preds ..B2.76 ..B2.34
                                # Execution count [1.00e+00]
..L160:
                # optimization report
                # LOOP WAS COMPLETELY UNROLLED BY 5
                # %s was not vectorized: vector dependence prevents vectorization%s
                # VECTOR TRIP COUNT IS KNOWN CONSTANT
..LN650:
	.loc    1  403  is_stmt 1
..LN651:
	.loc    1  404  is_stmt 1
        movl      64(%rsp), %eax                                #404.6
..LN652:
	.loc    1  405  is_stmt 1
        xorq      %rcx, %rcx                                    #405.5
..LN653:
        cmpl      (%rsp), %eax                                  #405.5
..LN654:
        setg      %cl                                           #405.5
..LN655:
	.loc    1  404  is_stmt 1
        movq      %rcx, %rdx                                    #404.37
..LN656:
        shlq      $6, %rdx                                      #404.37
..LN657:
        movl      (%rsp,%rdx), %eax                             #404.24
..LN658:
        cmpl      128(%rsp), %eax                               #404.24
..LN659:
        jge       ..B2.37       # Prob 50%                      #404.24
..LN660:
                                # LOE rcx eax
..B2.36:                        # Preds ..B2.35
                                # Execution count [5.00e-01]
..LN661:
        movl      128(%rsp), %eax                               #404.24
..LN662:
	.loc    1  405  is_stmt 1
        movl      $2, %ecx                                      #405.5
..LN663:
                                # LOE rcx eax
..B2.37:                        # Preds ..B2.36 ..B2.35
                                # Execution count [1.00e+00]
..LN664:
	.loc    1  404  is_stmt 1
        cmpl      192(%rsp), %eax                               #404.24
..LN665:
        jge       ..B2.39       # Prob 50%                      #404.24
..LN666:
                                # LOE rcx eax
..B2.38:                        # Preds ..B2.37
                                # Execution count [5.00e-01]
..LN667:
        movl      192(%rsp), %eax                               #404.24
..LN668:
	.loc    1  405  is_stmt 1
        movl      $3, %ecx                                      #405.5
..LN669:
                                # LOE rcx eax
..B2.39:                        # Preds ..B2.38 ..B2.37
                                # Execution count [1.00e+00]
..LN670:
	.loc    1  404  is_stmt 1
        cmpl      256(%rsp), %eax                               #404.24
..LN671:
        jge       ..B2.41       # Prob 50%                      #404.24
..LN672:
                                # LOE rcx eax
..B2.40:                        # Preds ..B2.39
                                # Execution count [5.00e-01]
..LN673:
        movl      256(%rsp), %eax                               #404.24
..LN674:
	.loc    1  405  is_stmt 1
        movl      $4, %ecx                                      #405.5
..LN675:
                                # LOE rcx eax
..B2.41:                        # Preds ..B2.40 ..B2.39
                                # Execution count [1.00e+00]
..LN676:
	.loc    1  404  is_stmt 1
        cmpl      320(%rsp), %eax                               #404.24
..LN677:
        jge       ..B2.43       # Prob 50%                      #404.24
..LN678:
                                # LOE rcx eax
..B2.42:                        # Preds ..B2.41
                                # Execution count [5.00e-01]
..LN679:
	.loc    1  408  is_stmt 1
        movl      320(%rsp), %eax                               #408.8
..LN680:
	.loc    1  405  is_stmt 1
        movl      $5, %ecx                                      #405.5
..LN681:
                                # LOE rcx eax
..B2.43:                        # Preds ..B2.42 ..B2.41
                                # Execution count [1.00e+00]
..LN682:
	.loc    1  409  is_stmt 1
        movq      384(%rsp), %r15                               #409.9[spill]
	.cfi_restore 15
..LN683:
        movq      392(%rsp), %r14                               #409.9[spill]
	.cfi_restore 14
..LN684:
        movq      400(%rsp), %r13                               #409.9[spill]
	.cfi_restore 13
..LN685:
        movq      408(%rsp), %r12                               #409.9[spill]
	.cfi_restore 12
..LN686:
        movq      416(%rsp), %rbx                               #409.9[spill]
	.cfi_restore 3
..LN687:
        movq      424(%rsp), %rbp                               #409.9[spill]
	.cfi_restore 6
..LN688:
	.loc    1  408  is_stmt 1
        movl      %eax, VALMM(%rip)                             #408.2
..LN689:
	.loc    1  409  is_stmt 1
        movl      %ecx, %eax                                    #409.9
..LN690:
	.loc    1  409  epilogue_begin  is_stmt 1
        addq      $472, %rsp                                    #409.9
	.cfi_def_cfa_offset 8
..LN691:
        ret                                                     #409.9
	.cfi_def_cfa_offset 480
..LN692:
                                # LOE
L__Z10decisionABP3Posib_395__par_loop0_2.6:
# parameter 1: %rdi
# parameter 2: %rsi
# parameter 3: %rdx
# parameter 4: %rcx
# parameter 5: %r8
# parameter 6: %r9
# parameter 7: 480 + %rsp
# parameter 8: 488 + %rsp
..B2.44:                        # Preds ..B2.0
                                # Execution count [1.00e+00]
..LN693:
	.loc    1  395  is_stmt 1
        subq      $472, %rsp                                    #395.3
..LN694:
        movq      (%rdx), %r11                                  #395.3
..LN695:
        movl      $1, %edx                                      #395.3
..LN696:
        movq      %r12, 408(%rsp)                               #395.3[spill]
	.cfi_offset 12, -72
..LN697:
        movl      (%rdi), %r12d                                 #395.3
..LN698:
        movl      $.2.88_2_kmpc_loc_struct_pack.50, %edi        #395.3
..LN699:
        movq      %rbp, 424(%rsp)                               #395.3[spill]
..LN700:
        movl      %r12d, %esi                                   #395.3
..LN701:
        movq      %rbx, 416(%rsp)                               #395.3[spill]
..LN702:
        movq      %r15, 384(%rsp)                               #395.3[spill]
..LN703:
        movq      %r14, 392(%rsp)                               #395.3[spill]
..LN704:
        movq      %r13, 400(%rsp)                               #395.3[spill]
	.cfi_offset 3, -64
	.cfi_offset 6, -56
	.cfi_offset 13, -80
	.cfi_offset 14, -88
	.cfi_offset 15, -96
..LN705:
        movq      %rcx, %r13                                    #395.3
..LN706:
        movq      480(%rsp), %r10                               #395.3
..LN707:
        movq      488(%rsp), %rax                               #395.3
..LN708:
        movq      %r11, 8(%rsp)                                 #395.3[spill]
..LN709:
        movl      $2, 16(%rsp)                                  #395.3
..LN710:
        movl      $5, 20(%rsp)                                  #395.3
..LN711:
        movl      $0, 24(%rsp)                                  #395.3
..LN712:
        movl      %edx, 28(%rsp)                                #395.3
..LN713:
        addq      $-32, %rsp                                    #395.3
	.cfi_def_cfa_offset 512
..LN714:
        movzbl    (%rax), %r14d                                 #395.3
..LN715:
        lea       60(%rsp), %rax                                #395.3
..LN716:
        movl      (%r9), %ebp                                   #395.3
..LN717:
        lea       56(%rsp), %rcx                                #395.3
..LN718:
        movl      (%r8), %r15d                                  #395.3
..LN719:
        lea       48(%rsp), %r8                                 #395.3
..LN720:
        movq      %rax, (%rsp)                                  #395.3
..LN721:
        lea       52(%rsp), %r9                                 #395.3
..LN722:
        movl      %edx, 8(%rsp)                                 #395.3
..LN723:
        movl      %edx, 16(%rsp)                                #395.3
..LN724:
        movl      $34, %edx                                     #395.3
..LN725:
        movl      (%r10), %ebx                                  #395.3
..LN726:
        call      __kmpc_for_static_init_4                      #395.3
..LN727:
                                # LOE r13 ebx ebp r12d r14d r15d
..B2.78:                        # Preds ..B2.44
                                # Execution count [1.00e+00]
..LN728:
	.loc    1  395  prologue_end  is_stmt 1
        addq      $32, %rsp                                     #395.3
	.cfi_def_cfa_offset 480
..LN729:
                                # LOE r13 ebx ebp r12d r14d r15d
..B2.45:                        # Preds ..B2.78
                                # Execution count [0.00e+00]
..LN730:
        movl      16(%rsp), %ecx                                #395.3
..LN731:
        movl      20(%rsp), %edx                                #395.3
..LN732:
        cmpl      $5, %ecx                                      #395.3
..LN733:
        jg        ..B2.66       # Prob 50%                      #395.3
..LN734:
                                # LOE r13 edx ecx ebx ebp r12d r14d r15d
..B2.46:                        # Preds ..B2.45
                                # Execution count [0.00e+00]
..LN735:
        movl      $5, %eax                                      #395.3
..LN736:
        cmpl      $5, %edx                                      #395.3
..LN737:
        cmovl     %edx, %eax                                    #395.3
..LN738:
	.loc    1  396  is_stmt 1
        cmpl      %eax, %ecx                                    #396.43
..LN739:
        jg        ..B2.66       # Prob 50%                      #396.43
..LN740:
                                # LOE r13 eax ecx ebx ebp r12d r14d r15d
..B2.47:                        # Preds ..B2.46
                                # Execution count [9.00e-01]
..LN741:
	.loc    1  399  is_stmt 1
        movl      %r15d, 32(%rsp)                               #399.69[spill]
..LN742:
        decl      %ebx                                          #399.69
..LN743:
        movl      %ebp, 40(%rsp)                                #399.69[spill]
..LN744:
        movl      %eax, %ebp                                    #399.69
..LN745:
        movl      %r12d, (%rsp)                                 #399.69[spill]
..LN746:
        movl      %ecx, %r12d                                   #399.69
..LN747:
        movq      8(%rsp), %r15                                 #399.69[spill]
..LN748:
                                # LOE r13 r15 ebx ebp r12d r14d
..B2.48:                        # Preds ..B2.64 ..B2.47
                                # Execution count [7.29e+01]
..L197:
                # optimization report
                # OPENMP LOOP
                # %s was not vectorized: vector dependence prevents vectorization%s
                # VECTOR TRIP COUNT IS ESTIMATED CONSTANT
..LN749:
	.loc    1  395  is_stmt 1
..LN750:
	.loc    1  398  is_stmt 1
        movq      %r15, %rsi                                    #398.7
..LN751:
        lea       48(%rsp), %rdi                                #398.7
..LN752:
        xorl      %edx, %edx                                    #398.7
..LN753:
        movl      %r12d, %ecx                                   #398.7
..___tag_value__Z10decisionABP3Posib.198:
..LN754:
#       jouer_coup(Position *, Position *, int, int)
        call      _Z10jouer_coupP3PosS0_ii                      #398.7
..___tag_value__Z10decisionABP3Posib.199:
..LN755:
                                # LOE r13 r15 eax ebx ebp r12d r14d
..B2.49:                        # Preds ..B2.48
                                # Execution count [7.29e+01]
..LN756:
        testl     %eax, %eax                                    #398.7
..LN757:
        je        ..B2.64       # Prob 78%                      #398.7
..LN758:
                                # LOE r13 r15 ebx ebp r12d r14d
..B2.50:                        # Preds ..B2.49
                                # Execution count [1.60e+01]
..LN759:
	.loc    1  333  is_stmt 1
        movl      96(%rsp), %eax                                #333.6
..LN760:
	.loc    1  330  is_stmt 1
        testl     %r14d, %r14d                                  #330.16
..LN761:
	.loc    1  333  is_stmt 1
        movl      100(%rsp), %edi                               #333.27
..LN762:
	.loc    1  330  is_stmt 1
        movl      %r14d, %r10d                                  #330.16
..LN763:
        cmovne    %ebx, %r10d                                   #330.16
..LN764:
	.loc    1  329  is_stmt 1
        incq      NUM_MINIMAX(%rip)                             #329.2
..LN765:
	.loc    1  333  is_stmt 1
        lea       (%rax,%rdi), %edx                             #333.27
..LN766:
        cmpl      $24, %edx                                     #333.48
..LN767:
        jle       ..B2.59       # Prob 50%                      #333.48
..LN768:
                                # LOE r13 r15 eax ebx ebp edi r10d r12d r14d
..B2.51:                        # Preds ..B2.50
                                # Execution count [8.02e+00]
..LN769:
	.loc    1  334  is_stmt 1
        movl      %eax, %edx                                    #334.7
..LN770:
        negl      %edx                                          #334.7
..LN771:
        addl      $48, %edx                                     #334.7
..LN772:
        subl      %edi, %edx                                    #334.7
..LN773:
        cmpl      $6, %edx                                      #334.51
..LN774:
        jg        ..B2.55       # Prob 50%                      #334.51
..LN775:
                                # LOE r13 r15 eax ebx ebp edi r10d r12d r14d
..B2.52:                        # Preds ..B2.51
                                # Execution count [4.01e+00]
..LN776:
	.loc    1  335  is_stmt 1
        cmpl      %edi, %eax                                    #335.29
..LN777:
        jg        ..B2.54       # Prob 28%                      #335.29
..LN778:
                                # LOE r13 r15 eax ebx ebp edi r10d r12d r14d
..B2.53:                        # Preds ..B2.52
                                # Execution count [2.89e+00]
..LN779:
	.loc    1  340  is_stmt 1
        negl      %r10d                                         #340.64
..LN780:
        addl      $-48, %r10d                                   #340.64
..LN781:
	.loc    1  399  is_stmt 1
        cmpl      %edi, %eax                                    #399.26
..LN782:
        movl      $0, %eax                                      #399.26
..LN783:
        cmovl     %r10d, %eax                                   #399.26
..LN784:
        jmp       ..B2.63       # Prob 100%                     #399.26
..LN785:
                                # LOE r13 r15 eax ebx ebp r12d r14d
..B2.54:                        # Preds ..B2.55 ..B2.52
                                # Execution count [1.12e+00]
..LN786:
	.loc    1  338  is_stmt 1
        lea       48(%r10), %eax                                #338.21
..LN787:
        jmp       ..B2.63       # Prob 100%                     #338.21
..LN788:
                                # LOE r13 r15 eax ebx ebp r12d r14d
..B2.55:                        # Preds ..B2.51
                                # Execution count [4.01e+00]
..LN789:
	.loc    1  343  is_stmt 1
        cmpl      $25, %eax                                     #343.29
..LN790:
        jge       ..B2.54       # Prob 28%                      #343.29
..LN791:
                                # LOE r13 r15 eax ebx ebp edi r10d r12d r14d
..B2.56:                        # Preds ..B2.55
                                # Execution count [2.89e+00]
..LN792:
	.loc    1  347  is_stmt 1
        cmpl      $25, %edi                                     #347.29
..LN793:
        jl        ..B2.59       # Prob 72%                      #347.29
..LN794:
                                # LOE r13 r15 eax ebx ebp edi r10d r12d r14d
..B2.57:                        # Preds ..B2.56
                                # Execution count [8.08e-01]
..LN795:
        negl      %r10d                                         #347.48
..LN796:
        lea       -48(%r10), %eax                               #347.48
..LN797:
        jmp       ..B2.63       # Prob 100%                     #347.48
..LN798:
                                # LOE r13 r15 eax ebx ebp r12d r14d
..B2.59:                        # Preds ..B2.56 ..B2.50
                                # Execution count [1.01e+01]
..LN799:
	.loc    1  349  is_stmt 1
        testl     %ebx, %ebx                                    #349.14
..LN800:
        jne       ..B2.61       # Prob 50%                      #349.14
..LN801:
                                # LOE r13 r15 eax ebx ebp edi r12d r14d
..B2.60:                        # Preds ..B2.59
                                # Execution count [5.05e+00]
..LN802:
	.loc    1  179  is_stmt 1
        subl      %edi, %eax                                    #179.9
..LN803:
        jmp       ..B2.63       # Prob 100%                     #179.9
..LN804:
                                # LOE r13 r15 eax ebx ebp r12d r14d
..B2.61:                        # Preds ..B2.59
                                # Execution count [5.05e+00]
..LN805:
	.loc    1  350  is_stmt 1
        movl      $1, %esi                                      #350.9
..LN806:
        lea       48(%rsp), %rdi                                #350.9
..LN807:
        movl      %ebx, %r8d                                    #350.9
..LN808:
        movl      %r14d, %r9d                                   #350.9
..LN809:
        movl      -16(%rdi), %edx                               #350.9[spill]
..LN810:
        movl      -8(%rdi), %ecx                                #350.9[spill]
..___tag_value__Z10decisionABP3Posib.201:
..LN811:
#       calculer_coup(Position *, int, int, int, int, bool)
        call      _Z13calculer_coupP3Posiiiib                   #350.9
..___tag_value__Z10decisionABP3Posib.202:
..LN812:
                                # LOE r13 r15 eax ebx ebp r12d r14d
..B2.63:                        # Preds ..B2.61 ..B2.60 ..B2.54 ..B2.53 ..B2.57
                                #      
                                # Execution count [1.60e+01]
..LN813:
	.loc    1  399  is_stmt 1
        movslq    %r12d, %rdx                                   #399.7
..LN814:
        shlq      $6, %rdx                                      #399.20
..LN815:
        movl      %eax, (%r13,%rdx)                             #399.7
..LN816:
                                # LOE r13 r15 ebx ebp r12d r14d
..B2.64:                        # Preds ..B2.49 ..B2.63
                                # Execution count [7.29e+01]
..LN817:
	.loc    1  396  is_stmt 1
        incl      %r12d                                         #396.35
..LN818:
        cmpl      %ebp, %r12d                                   #396.43
..LN819:
        jle       ..B2.48       # Prob 98%                      #396.43
..LN820:
                                # LOE r13 r15 ebx ebp r12d r14d
..B2.65:                        # Preds ..B2.64
                                # Execution count [9.00e-01]
..LN821:
        movl      (%rsp), %r12d                                 #[spill]
..LN822:
                                # LOE r12d
..B2.66:                        # Preds ..B2.65 ..B2.46 ..B2.45
                                # Execution count [0.00e+00]
..LN823:
	.loc    1  395  is_stmt 1
        movl      $.2.88_2_kmpc_loc_struct_pack.50, %edi        #395.3
..LN824:
        movl      %r12d, %esi                                   #395.3
..LN825:
        call      __kmpc_for_static_fini                        #395.3
..LN826:
                                # LOE
..B2.67:                        # Preds ..B2.66
                                # Execution count [0.00e+00]
..LN827:
        movq      384(%rsp), %r15                               #395.3[spill]
	.cfi_restore 15
..LN828:
        movq      392(%rsp), %r14                               #395.3[spill]
	.cfi_restore 14
..LN829:
        movq      400(%rsp), %r13                               #395.3[spill]
	.cfi_restore 13
..LN830:
        movq      408(%rsp), %r12                               #395.3[spill]
	.cfi_restore 12
..LN831:
        movq      416(%rsp), %rbx                               #395.3[spill]
	.cfi_restore 3
..LN832:
        movq      424(%rsp), %rbp                               #395.3[spill]
	.cfi_restore 6
..LN833:
	.loc    1  395  epilogue_begin  is_stmt 1
        addq      $472, %rsp                                    #395.3
	.cfi_def_cfa_offset 8
..LN834:
        ret                                                     #395.3
	.cfi_def_cfa_offset 480
	.cfi_offset 3, -64
	.cfi_offset 6, -56
	.cfi_offset 12, -72
	.cfi_offset 13, -80
	.cfi_offset 14, -88
	.cfi_offset 15, -96
..LN835:
                                # LOE
..B2.69:                        # Preds ..B2.1
                                # Execution count [1.60e-01]: Infreq
..LN836:
	.loc    1  386  is_stmt 1
        movl      440(%rsp), %r14d                              #386.48
..LN837:
        jmp       ..B2.10       # Prob 100%                     #386.48
        .align    16,0x90
..LN838:
                                # LOE r15 r14d
..LN839:
	.cfi_endproc
# mark_end;
	.type	_Z10decisionABP3Posib,@function
	.size	_Z10decisionABP3Posib,.-_Z10decisionABP3Posib
..LN_Z10decisionABP3Posib.840:
.LN_Z10decisionABP3Posib:
	.data
	.space 1, 0x00 	# pad
	.align 4
.2.88_2_kmpc_loc_struct_pack.42:
	.long	0
	.long	2
	.long	0
	.long	0
	.quad	.2.88_2__kmpc_loc_pack.41
	.align 4
.2.88_2__kmpc_loc_pack.41:
	.byte	59
	.byte	117
	.byte	110
	.byte	107
	.byte	110
	.byte	111
	.byte	119
	.byte	110
	.byte	59
	.byte	100
	.byte	101
	.byte	99
	.byte	105
	.byte	115
	.byte	105
	.byte	111
	.byte	110
	.byte	65
	.byte	66
	.byte	59
	.byte	51
	.byte	57
	.byte	53
	.byte	59
	.byte	51
	.byte	57
	.byte	53
	.byte	59
	.byte	59
	.space 3, 0x00 	# pad
	.align 4
.2.88_2_kmpc_loc_struct_pack.50:
	.long	0
	.long	2
	.long	0
	.long	0
	.quad	.2.88_2__kmpc_loc_pack.49
	.align 4
.2.88_2__kmpc_loc_pack.49:
	.byte	59
	.byte	117
	.byte	110
	.byte	107
	.byte	110
	.byte	111
	.byte	119
	.byte	110
	.byte	59
	.byte	100
	.byte	101
	.byte	99
	.byte	105
	.byte	115
	.byte	105
	.byte	111
	.byte	110
	.byte	65
	.byte	66
	.byte	59
	.byte	51
	.byte	57
	.byte	53
	.byte	59
	.byte	52
	.byte	48
	.byte	49
	.byte	59
	.byte	59
	.data
# -- End  _Z10decisionABP3Posib, L__Z10decisionABP3Posib_395__par_loop0_2.6
	.text
.L_2__routine_start__Z13calculer_coupP3Posiiiib_2:
# -- Begin  _Z13calculer_coupP3Posiiiib
	.text
# mark_begin;
       .align    16,0x90
	.globl _Z13calculer_coupP3Posiiiib
# --- calculer_coup(Position *, int, int, int, int, bool)
_Z13calculer_coupP3Posiiiib:
# parameter 1(pos): %rdi
# parameter 2(joueur): %esi
# parameter 3(alpha): %edx
# parameter 4(beta): %ecx
# parameter 5(pmax): %r8d
# parameter 6(gagne): %r9d
..B3.1:                         # Preds ..B3.0
                                # Execution count [1.00e+00]
	.cfi_startproc
	.cfi_personality 0x3,__gxx_personality_v0
..___tag_value__Z13calculer_coupP3Posiiiib.230:
..L231:
                                                        #290.104
..LN841:
	.loc    1  290  is_stmt 1
        pushq     %r12                                          #290.104
	.cfi_def_cfa_offset 16
	.cfi_offset 12, -16
..LN842:
        pushq     %r13                                          #290.104
	.cfi_def_cfa_offset 24
	.cfi_offset 13, -24
..LN843:
        pushq     %r14                                          #290.104
	.cfi_def_cfa_offset 32
	.cfi_offset 14, -32
..LN844:
        pushq     %r15                                          #290.104
	.cfi_def_cfa_offset 40
	.cfi_offset 15, -40
..LN845:
        pushq     %rbx                                          #290.104
	.cfi_def_cfa_offset 48
	.cfi_offset 3, -48
..LN846:
        pushq     %rbp                                          #290.104
	.cfi_def_cfa_offset 56
	.cfi_offset 6, -56
..LN847:
        subq      $72, %rsp                                     #290.104
	.cfi_def_cfa_offset 128
..LN848:
	.loc    1  296  prologue_end  is_stmt 1
        decl      %r8d                                          #296.68
..LN849:
	.loc    1  292  is_stmt 1
        testl     %esi, %esi                                    #292.14
..LN850:
        je        ..B3.21       # Prob 50%                      #292.14
..LN851:
                                # LOE rbx rbp rdi r12 r13 r14 r15 edx ecx esi r8d r9d
..B3.2:                         # Preds ..B3.1
                                # Execution count [5.00e-01]
..LN852:
	.loc    1  310  is_stmt 1
        xorl      %eax, %eax                                    #310.11
..LN853:
        movl      %edx, %r15d                                   #310.11
..LN854:
        movl      %r9d, 56(%rsp)                                #310.11[spill]
..LN855:
        movl      %eax, %r12d                                   #310.11
..LN856:
        movl      %ecx, %ebx                                    #310.11
..LN857:
        movl      %esi, %r14d                                   #310.11
..LN858:
        movq      %rdi, %r13                                    #310.11
..LN859:
        movl      %r8d, %ebp                                    #310.11
..LN860:
                                # LOE r13 ebx ebp r12d r14d r15d
..B3.3:                         # Preds ..B3.19 ..B3.2
                                # Execution count [2.46e+00]
..L247:
                # optimization report
                # %s was not vectorized: loop with multiple exits cannot be vectorized unless it meets search loop idiom criteria
                # VECTOR TRIP COUNT IS KNOWN CONSTANT
..LN861:
..LN862:
	.loc    1  311  is_stmt 1
        movq      %r13, %rsi                                    #311.7
..LN863:
        lea       (%rsp), %rdi                                  #311.7
..LN864:
        movl      %r14d, %edx                                   #311.7
..LN865:
        movl      %r12d, %ecx                                   #311.7
..___tag_value__Z13calculer_coupP3Posiiiib.248:
..LN866:
#       jouer_coup(Position *, Position *, int, int)
        call      _Z10jouer_coupP3PosS0_ii                      #311.7
..___tag_value__Z13calculer_coupP3Posiiiib.249:
..LN867:
                                # LOE r13 eax ebx ebp r12d r14d r15d
..B3.4:                         # Preds ..B3.3
                                # Execution count [2.46e+00]
..LN868:
        testl     %eax, %eax                                    #311.7
..LN869:
        je        ..B3.19       # Prob 78%                      #311.7
..LN870:
                                # LOE r13 ebx ebp r12d r14d r15d
..B3.5:                         # Preds ..B3.4
                                # Execution count [0.00e+00]
..LN871:
	.loc    1  333  is_stmt 1
        movl      48(%rsp), %r10d                               #333.6
..LN872:
        movl      52(%rsp), %r11d                               #333.27
..LN873:
	.loc    1  330  is_stmt 1
        movzbl    56(%rsp), %eax                                #330.16[spill]
..LN874:
        testl     %eax, %eax                                    #330.16
..LN875:
        cmovne    %ebp, %eax                                    #330.16
..LN876:
	.loc    1  333  is_stmt 1
        lea       (%r10,%r11), %r9d                             #333.27
..LN877:
	.loc    1  329  is_stmt 1
        incq      NUM_MINIMAX(%rip)                             #329.2
..LN878:
	.loc    1  333  is_stmt 1
        cmpl      $24, %r9d                                     #333.48
..LN879:
        jle       ..B3.14       # Prob 50%                      #333.48
..LN880:
                                # LOE r13 eax ebx ebp r10d r11d r12d r14d r15d
..B3.6:                         # Preds ..B3.5
                                # Execution count [2.70e-01]
..LN881:
	.loc    1  334  is_stmt 1
        movl      %r10d, %r9d                                   #334.7
..LN882:
        negl      %r9d                                          #334.7
..LN883:
        addl      $48, %r9d                                     #334.7
..LN884:
        subl      %r11d, %r9d                                   #334.7
..LN885:
        cmpl      $6, %r9d                                      #334.51
..LN886:
        jg        ..B3.10       # Prob 50%                      #334.51
..LN887:
                                # LOE r13 eax ebx ebp r10d r11d r12d r14d r15d
..B3.7:                         # Preds ..B3.6
                                # Execution count [1.35e-01]
..LN888:
	.loc    1  335  is_stmt 1
        cmpl      %r11d, %r10d                                  #335.29
..LN889:
        jg        ..B3.9        # Prob 28%                      #335.29
..LN890:
                                # LOE r13 eax ebx ebp r10d r11d r12d r14d r15d
..B3.8:                         # Preds ..B3.7
                                # Execution count [9.74e-02]
..LN891:
	.loc    1  340  is_stmt 1
        negl      %eax                                          #340.64
..LN892:
	.loc    1  312  is_stmt 1
        xorl      %r9d, %r9d                                    #312.18
..LN893:
	.loc    1  340  is_stmt 1
        addl      $-48, %eax                                    #340.64
..LN894:
	.loc    1  312  is_stmt 1
        cmpl      %r11d, %r10d                                  #312.18
..LN895:
        cmovge    %r9d, %eax                                    #312.18
..LN896:
        jmp       ..B3.18       # Prob 100%                     #312.18
..LN897:
                                # LOE r13 eax ebx ebp r12d r14d r15d
..B3.9:                         # Preds ..B3.10 ..B3.7
                                # Execution count [3.79e-02]
..LN898:
	.loc    1  338  is_stmt 1
        addl      $48, %eax                                     #338.21
..LN899:
        jmp       ..B3.18       # Prob 100%                     #338.21
..LN900:
                                # LOE r13 eax ebx ebp r12d r14d r15d
..B3.10:                        # Preds ..B3.6
                                # Execution count [1.35e-01]
..LN901:
	.loc    1  343  is_stmt 1
        cmpl      $25, %r10d                                    #343.29
..LN902:
        jge       ..B3.9        # Prob 28%                      #343.29
..LN903:
                                # LOE r13 eax ebx ebp r10d r11d r12d r14d r15d
..B3.11:                        # Preds ..B3.10
                                # Execution count [9.74e-02]
..LN904:
	.loc    1  347  is_stmt 1
        cmpl      $25, %r11d                                    #347.29
..LN905:
        jl        ..B3.14       # Prob 72%                      #347.29
..LN906:
                                # LOE r13 eax ebx ebp r10d r11d r12d r14d r15d
..B3.12:                        # Preds ..B3.11
                                # Execution count [2.73e-02]
..LN907:
        negl      %eax                                          #347.48
..LN908:
        addl      $-48, %eax                                    #347.48
..LN909:
        jmp       ..B3.18       # Prob 100%                     #347.48
..LN910:
                                # LOE r13 eax ebx ebp r12d r14d r15d
..B3.14:                        # Preds ..B3.11 ..B3.5
                                # Execution count [3.41e-01]
..LN911:
	.loc    1  349  is_stmt 1
        testl     %ebp, %ebp                                    #349.14
..LN912:
        jne       ..B3.16       # Prob 50%                      #349.14
..LN913:
                                # LOE r13 ebx ebp r10d r11d r12d r14d r15d
..B3.15:                        # Preds ..B3.14
                                # Execution count [1.70e-01]
..LN914:
	.loc    1  179  is_stmt 1
        movl      %r10d, %eax                                   #179.9
..LN915:
        subl      %r11d, %eax                                   #179.9
..LN916:
        jmp       ..B3.18       # Prob 100%                     #179.9
..LN917:
                                # LOE r13 eax ebx ebp r12d r14d r15d
..B3.16:                        # Preds ..B3.14
                                # Execution count [1.70e-01]
..LN918:
	.loc    1  350  is_stmt 1
        xorl      %esi, %esi                                    #350.9
..LN919:
        lea       (%rsp), %rdi                                  #350.9
..LN920:
        movl      %r15d, %edx                                   #350.9
..LN921:
        movl      %ebx, %ecx                                    #350.9
..LN922:
        movl      %ebp, %r8d                                    #350.9
..LN923:
        movl      56(%rdi), %r9d                                #350.9[spill]
..___tag_value__Z13calculer_coupP3Posiiiib.251:
..LN924:
#       calculer_coup(Position *, int, int, int, int, bool)
        call      _Z13calculer_coupP3Posiiiib                   #350.9
..___tag_value__Z13calculer_coupP3Posiiiib.252:
..LN925:
                                # LOE r13 eax ebx ebp r12d r14d r15d
..B3.18:                        # Preds ..B3.16 ..B3.15 ..B3.9 ..B3.8 ..B3.12
                                #      
                                # Execution count [5.41e-01]
..LN926:
	.loc    1  314  is_stmt 1
        cmpl      %ebx, %eax                                    #314.4
..LN927:
        cmovl     %eax, %ebx                                    #314.4
..LN928:
	.loc    1  317  is_stmt 1
        cmpl      %r15d, %ebx                                   #317.16
..LN929:
        jle       ..B3.20       # Prob 20%                      #317.16
..LN930:
                                # LOE r13 ebx ebp r12d r14d r15d
..B3.19:                        # Preds ..B3.18 ..B3.4
                                # Execution count [2.35e+00]
..LN931:
	.loc    1  310  is_stmt 1
        incl      %r12d                                         #310.18
..LN932:
        cmpl      $6, %r12d                                     #310.16
..LN933:
        jl        ..B3.3        # Prob 83%                      #310.16
..LN934:
                                # LOE r13 ebx ebp r12d r14d r15d
..B3.20:                        # Preds ..B3.18 ..B3.19
                                # Execution count [3.92e-01]
..LN935:
        movl      %ebx, %ecx                                    #
..LN936:
	.loc    1  323  is_stmt 1
        movl      %ecx, %eax                                    #323.9
..LN937:
	.loc    1  323  epilogue_begin  is_stmt 1
        addq      $72, %rsp                                     #323.9
	.cfi_def_cfa_offset 56
	.cfi_restore 6
..LN938:
        popq      %rbp                                          #323.9
	.cfi_def_cfa_offset 48
	.cfi_restore 3
..LN939:
        popq      %rbx                                          #323.9
	.cfi_def_cfa_offset 40
	.cfi_restore 15
..LN940:
        popq      %r15                                          #323.9
	.cfi_def_cfa_offset 32
	.cfi_restore 14
..LN941:
        popq      %r14                                          #323.9
	.cfi_def_cfa_offset 24
	.cfi_restore 13
..LN942:
        popq      %r13                                          #323.9
	.cfi_def_cfa_offset 16
	.cfi_restore 12
..LN943:
        popq      %r12                                          #323.9
	.cfi_def_cfa_offset 8
..LN944:
        ret                                                     #323.9
	.cfi_def_cfa_offset 128
	.cfi_offset 3, -48
	.cfi_offset 6, -56
	.cfi_offset 12, -16
	.cfi_offset 13, -24
	.cfi_offset 14, -32
	.cfi_offset 15, -40
..LN945:
                                # LOE
..B3.21:                        # Preds ..B3.1
                                # Execution count [5.00e-01]
..LN946:
	.loc    1  330  is_stmt 1
        movzbl    %r9b, %eax                                    #330.16
..LN947:
	.loc    1  294  is_stmt 1
        xorl      %esi, %esi                                    #294.12
..LN948:
	.loc    1  330  is_stmt 1
        movl      %r9d, 56(%rsp)                                #330.16[spill]
..LN949:
        movl      %eax, %r15d                                   #330.16
..LN950:
        movl      %edx, %ebx                                    #330.16
..LN951:
        movl      %ecx, %r12d                                   #330.16
..LN952:
        movl      %esi, %ebp                                    #330.16
..LN953:
        movq      %rdi, %r14                                    #330.16
..LN954:
        movl      %r8d, %r13d                                   #330.16
..LN955:
                                # LOE r14 ebx ebp r12d r13d r15d
..B3.22:                        # Preds ..B3.38 ..B3.21
                                # Execution count [2.46e+00]
..L276:
                # optimization report
                # %s was not vectorized: loop with multiple exits cannot be vectorized unless it meets search loop idiom criteria
                # VECTOR TRIP COUNT IS KNOWN CONSTANT
..LN956:
	.loc    1  294  is_stmt 1
..LN957:
	.loc    1  295  is_stmt 1
        movq      %r14, %rsi                                    #295.8
..LN958:
        lea       (%rsp), %rdi                                  #295.8
..LN959:
        xorl      %edx, %edx                                    #295.8
..LN960:
        movl      %ebp, %ecx                                    #295.8
..___tag_value__Z13calculer_coupP3Posiiiib.277:
..LN961:
#       jouer_coup(Position *, Position *, int, int)
        call      _Z10jouer_coupP3PosS0_ii                      #295.8
..___tag_value__Z13calculer_coupP3Posiiiib.278:
..LN962:
                                # LOE r14 eax ebx ebp r12d r13d r15d
..B3.23:                        # Preds ..B3.22
                                # Execution count [2.46e+00]
..LN963:
        testl     %eax, %eax                                    #295.8
..LN964:
        je        ..B3.38       # Prob 78%                      #295.8
..LN965:
                                # LOE r14 ebx ebp r12d r13d r15d
..B3.24:                        # Preds ..B3.23
                                # Execution count [5.41e-01]
..LN966:
	.loc    1  333  is_stmt 1
        movl      48(%rsp), %r10d                               #333.6
..LN967:
	.loc    1  330  is_stmt 1
        testl     %r15d, %r15d                                  #330.16
..LN968:
	.loc    1  333  is_stmt 1
        movl      52(%rsp), %r11d                               #333.27
..LN969:
	.loc    1  330  is_stmt 1
        movl      %r15d, %eax                                   #330.16
..LN970:
        cmovne    %r13d, %eax                                   #330.16
..LN971:
	.loc    1  329  is_stmt 1
        incq      NUM_MINIMAX(%rip)                             #329.2
..LN972:
	.loc    1  333  is_stmt 1
        lea       (%r10,%r11), %r9d                             #333.27
..LN973:
        cmpl      $24, %r9d                                     #333.48
..LN974:
        jle       ..B3.33       # Prob 50%                      #333.48
..LN975:
                                # LOE r14 eax ebx ebp r10d r11d r12d r13d r15d
..B3.25:                        # Preds ..B3.24
                                # Execution count [2.70e-01]
..LN976:
	.loc    1  334  is_stmt 1
        movl      %r10d, %r9d                                   #334.7
..LN977:
        negl      %r9d                                          #334.7
..LN978:
        addl      $48, %r9d                                     #334.7
..LN979:
        subl      %r11d, %r9d                                   #334.7
..LN980:
        cmpl      $6, %r9d                                      #334.51
..LN981:
        jg        ..B3.29       # Prob 50%                      #334.51
..LN982:
                                # LOE r14 eax ebx ebp r10d r11d r12d r13d r15d
..B3.26:                        # Preds ..B3.25
                                # Execution count [1.35e-01]
..LN983:
	.loc    1  335  is_stmt 1
        cmpl      %r11d, %r10d                                  #335.29
..LN984:
        jg        ..B3.28       # Prob 28%                      #335.29
..LN985:
                                # LOE r14 eax ebx ebp r10d r11d r12d r13d r15d
..B3.27:                        # Preds ..B3.26
                                # Execution count [9.74e-02]
..LN986:
	.loc    1  340  is_stmt 1
        negl      %eax                                          #340.64
..LN987:
	.loc    1  296  is_stmt 1
        xorl      %r9d, %r9d                                    #296.19
..LN988:
	.loc    1  340  is_stmt 1
        addl      $-48, %eax                                    #340.64
..LN989:
	.loc    1  296  is_stmt 1
        cmpl      %r11d, %r10d                                  #296.19
..LN990:
        cmovge    %r9d, %eax                                    #296.19
..LN991:
        jmp       ..B3.37       # Prob 100%                     #296.19
..LN992:
                                # LOE r14 eax ebx ebp r12d r13d r15d
..B3.28:                        # Preds ..B3.29 ..B3.26
                                # Execution count [3.79e-02]
..LN993:
	.loc    1  338  is_stmt 1
        addl      $48, %eax                                     #338.21
..LN994:
        jmp       ..B3.37       # Prob 100%                     #338.21
..LN995:
                                # LOE r14 eax ebx ebp r12d r13d r15d
..B3.29:                        # Preds ..B3.25
                                # Execution count [1.35e-01]
..LN996:
	.loc    1  343  is_stmt 1
        cmpl      $25, %r10d                                    #343.29
..LN997:
        jge       ..B3.28       # Prob 28%                      #343.29
..LN998:
                                # LOE r14 eax ebx ebp r10d r11d r12d r13d r15d
..B3.30:                        # Preds ..B3.29
                                # Execution count [9.74e-02]
..LN999:
	.loc    1  347  is_stmt 1
        cmpl      $25, %r11d                                    #347.29
..LN1000:
        jl        ..B3.33       # Prob 72%                      #347.29
..LN1001:
                                # LOE r14 eax ebx ebp r10d r11d r12d r13d r15d
..B3.31:                        # Preds ..B3.30
                                # Execution count [2.73e-02]
..LN1002:
        negl      %eax                                          #347.48
..LN1003:
        addl      $-48, %eax                                    #347.48
..LN1004:
        jmp       ..B3.37       # Prob 100%                     #347.48
..LN1005:
                                # LOE r14 eax ebx ebp r12d r13d r15d
..B3.33:                        # Preds ..B3.30 ..B3.24
                                # Execution count [3.41e-01]
..LN1006:
	.loc    1  349  is_stmt 1
        testl     %r13d, %r13d                                  #349.14
..LN1007:
        jne       ..B3.35       # Prob 50%                      #349.14
..LN1008:
                                # LOE r14 ebx ebp r10d r11d r12d r13d r15d
..B3.34:                        # Preds ..B3.33
                                # Execution count [1.70e-01]
..LN1009:
	.loc    1  179  is_stmt 1
        movl      %r10d, %eax                                   #179.9
..LN1010:
        subl      %r11d, %eax                                   #179.9
..LN1011:
        jmp       ..B3.37       # Prob 100%                     #179.9
..LN1012:
                                # LOE r14 eax ebx ebp r12d r13d r15d
..B3.35:                        # Preds ..B3.33
                                # Execution count [1.70e-01]
..LN1013:
	.loc    1  350  is_stmt 1
        movl      $1, %esi                                      #350.9
..LN1014:
        lea       (%rsp), %rdi                                  #350.9
..LN1015:
        movl      %ebx, %edx                                    #350.9
..LN1016:
        movl      %r12d, %ecx                                   #350.9
..LN1017:
        movl      %r13d, %r8d                                   #350.9
..LN1018:
        movl      56(%rdi), %r9d                                #350.9[spill]
..___tag_value__Z13calculer_coupP3Posiiiib.279:
..LN1019:
#       calculer_coup(Position *, int, int, int, int, bool)
        call      _Z13calculer_coupP3Posiiiib                   #350.9
..___tag_value__Z13calculer_coupP3Posiiiib.280:
..LN1020:
                                # LOE r14 eax ebx ebp r12d r13d r15d
..B3.37:                        # Preds ..B3.35 ..B3.34 ..B3.28 ..B3.27 ..B3.31
                                #      
                                # Execution count [5.41e-01]
..LN1021:
	.loc    1  298  is_stmt 1
        cmpl      %ebx, %eax                                    #298.5
..LN1022:
        cmovge    %eax, %ebx                                    #298.5
..LN1023:
	.loc    1  301  is_stmt 1
        cmpl      %r12d, %ebx                                   #301.18
..LN1024:
        jge       ..B3.39       # Prob 20%                      #301.18
..LN1025:
                                # LOE r14 ebx ebp r12d r13d r15d
..B3.38:                        # Preds ..B3.37 ..B3.23
                                # Execution count [2.35e+00]
..LN1026:
	.loc    1  294  is_stmt 1
        incl      %ebp                                          #294.19
..LN1027:
        cmpl      $6, %ebp                                      #294.17
..LN1028:
        jl        ..B3.22       # Prob 83%                      #294.17
..LN1029:
                                # LOE r14 ebx ebp r12d r13d r15d
..B3.39:                        # Preds ..B3.37 ..B3.38
                                # Execution count [3.92e-01]
..LN1030:
        movl      %ebx, %edx                                    #
..LN1031:
	.loc    1  307  is_stmt 1
        movl      %edx, %eax                                    #307.10
..LN1032:
	.loc    1  307  epilogue_begin  is_stmt 1
        addq      $72, %rsp                                     #307.10
	.cfi_def_cfa_offset 56
	.cfi_restore 6
..LN1033:
        popq      %rbp                                          #307.10
	.cfi_def_cfa_offset 48
	.cfi_restore 3
..LN1034:
        popq      %rbx                                          #307.10
	.cfi_def_cfa_offset 40
	.cfi_restore 15
..LN1035:
        popq      %r15                                          #307.10
	.cfi_def_cfa_offset 32
	.cfi_restore 14
..LN1036:
        popq      %r14                                          #307.10
	.cfi_def_cfa_offset 24
	.cfi_restore 13
..LN1037:
        popq      %r13                                          #307.10
	.cfi_def_cfa_offset 16
	.cfi_restore 12
..LN1038:
        popq      %r12                                          #307.10
	.cfi_def_cfa_offset 8
..LN1039:
        ret                                                     #307.10
        .align    16,0x90
..LN1040:
                                # LOE
..LN1041:
	.cfi_endproc
# mark_end;
	.type	_Z13calculer_coupP3Posiiiib,@function
	.size	_Z13calculer_coupP3Posiiiib,.-_Z13calculer_coupP3Posiiiib
..LN_Z13calculer_coupP3Posiiiib.1042:
.LN_Z13calculer_coupP3Posiiiib:
	.data
# -- End  _Z13calculer_coupP3Posiiiib
	.text
.L_2__routine_start__Z10jouer_coupP3PosS0_ii_3:
# -- Begin  _Z10jouer_coupP3PosS0_ii
	.text
# mark_begin;
       .align    16,0x90
	.globl _Z10jouer_coupP3PosS0_ii
# --- jouer_coup(Position *, Position *, int, int)
_Z10jouer_coupP3PosS0_ii:
# parameter 1(newPos): %rdi
# parameter 2(pos): %rsi
# parameter 3(joueur): %edx
# parameter 4(coup): %ecx
..B4.1:                         # Preds ..B4.0
                                # Execution count [1.00e+00]
	.cfi_startproc
	.cfi_personality 0x3,__gxx_personality_v0
..___tag_value__Z10jouer_coupP3PosS0_ii.299:
..L300:
                                                        #116.82
..LN1043:
	.loc    1  116  is_stmt 1
        pushq     %r15                                          #116.82
	.cfi_def_cfa_offset 16
	.cfi_offset 15, -16
..LN1044:
        pushq     %rbx                                          #116.82
	.cfi_def_cfa_offset 24
	.cfi_offset 3, -24
..LN1045:
        pushq     %rbp                                          #116.82
	.cfi_def_cfa_offset 32
	.cfi_offset 6, -32
..LN1046:
	.loc    1  116  prologue_end  is_stmt 1
        movslq    %edx, %r9                                     #116.82
..LN1047:
        movslq    %ecx, %r8                                     #116.82
..LN1048:
	.loc    1  118  is_stmt 1
        lea       (%r9,%r9,2), %rax                             #118.20
..LN1049:
        lea       (%rsi,%rax,8), %r10                           #118.20
..LN1050:
        movl      (%r10,%r8,4), %ecx                            #118.20
..LN1051:
	.loc    1  120  is_stmt 1
        testl     %ecx, %ecx                                    #120.17
..LN1052:
        jne       ..B4.3        # Prob 42%                      #120.17
..LN1053:
                                # LOE rax rbx rsi rdi r8 r9 r12 r13 r14 r15 ecx
..B4.2:                         # Preds ..B4.1
                                # Execution count [5.80e-01]
..LN1054:
	.loc    1  122  is_stmt 1
        xorl      %eax, %eax                                    #122.10
	.cfi_restore 6
..LN1055:
	.loc    1  122  epilogue_begin  is_stmt 1
        popq      %rbp                                          #122.10
	.cfi_def_cfa_offset 24
	.cfi_restore 3
..LN1056:
        popq      %rbx                                          #122.10
	.cfi_def_cfa_offset 16
	.cfi_restore 15
..LN1057:
        popq      %r15                                          #122.10
	.cfi_def_cfa_offset 8
..LN1058:
        ret                                                     #122.10
	.cfi_def_cfa_offset 32
	.cfi_offset 3, -24
	.cfi_offset 6, -32
	.cfi_offset 15, -16
..LN1059:
                                # LOE
..B4.3:                         # Preds ..B4.1
                                # Execution count [4.20e-01]
..L319:
                # optimization report
                # LOOP WAS COMPLETELY UNROLLED BY 6
                # %s was not vectorized: vector dependence prevents vectorization%s
                # VECTOR TRIP COUNT IS KNOWN CONSTANT
..LN1060:
	.loc    1  108  is_stmt 1
..LN1061:
	.loc    1  109  is_stmt 1
        movl      (%rsi), %ebp                                  #109.24
..LN1062:
        movl      %ebp, (%rdi)                                  #109.3
..LN1063:
	.loc    1  110  is_stmt 1
        movl      24(%rsi), %r10d                               #110.24
..LN1064:
        movl      %r10d, 24(%rdi)                               #110.3
..LN1065:
	.loc    1  126  is_stmt 1
        lea       (%rdi,%rax,8), %r10                           #126.2
..LN1066:
	.loc    1  109  is_stmt 1
        movl      4(%rsi), %r11d                                #109.24
..LN1067:
        movl      %r11d, 4(%rdi)                                #109.3
..LN1068:
	.loc    1  110  is_stmt 1
        movl      28(%rsi), %ebp                                #110.24
..LN1069:
        movl      %ebp, 28(%rdi)                                #110.3
..LN1070:
	.loc    1  109  is_stmt 1
        movl      8(%rsi), %ebp                                 #109.24
..LN1071:
        movl      %ebp, 8(%rdi)                                 #109.3
..LN1072:
	.loc    1  110  is_stmt 1
        movl      32(%rsi), %ebp                                #110.24
..LN1073:
        movl      %ebp, 32(%rdi)                                #110.3
..LN1074:
	.loc    1  109  is_stmt 1
        movl      12(%rsi), %ebp                                #109.24
..LN1075:
        movl      %ebp, 12(%rdi)                                #109.3
..LN1076:
	.loc    1  110  is_stmt 1
        movl      36(%rsi), %ebp                                #110.24
..LN1077:
        movl      %ebp, 36(%rdi)                                #110.3
..LN1078:
	.loc    1  109  is_stmt 1
        movl      16(%rsi), %ebp                                #109.24
..LN1079:
        movl      %ebp, 16(%rdi)                                #109.3
..LN1080:
	.loc    1  110  is_stmt 1
        movl      40(%rsi), %ebp                                #110.24
..LN1081:
        movl      %ebp, 40(%rdi)                                #110.3
..LN1082:
	.loc    1  109  is_stmt 1
        movl      20(%rsi), %ebp                                #109.24
..LN1083:
        movl      %ebp, 20(%rdi)                                #109.3
..LN1084:
	.loc    1  110  is_stmt 1
        movl      44(%rsi), %ebp                                #110.24
..LN1085:
        movl      %ebp, 44(%rdi)                                #110.3
..LN1086:
	.loc    1  112  is_stmt 1
        movl      48(%rsi), %ebp                                #112.24
..LN1087:
        movl      %ebp, 48(%rdi)                                #112.2
..LN1088:
	.loc    1  128  is_stmt 1
        movq      %r8, %rbp                                     #128.8
..LN1089:
	.loc    1  113  is_stmt 1
        movl      52(%rsi), %esi                                #113.24
..LN1090:
        movl      %esi, 52(%rdi)                                #113.2
..LN1091:
	.loc    1  127  is_stmt 1
        movq      %r9, %rsi                                     #127.8
..LN1092:
	.loc    1  126  is_stmt 1
        movl      $0, (%r10,%r8,4)                              #126.2
..LN1093:
	.loc    1  129  is_stmt 1
        jle       ..B4.24       # Prob 50%                      #129.16
..LN1094:
                                # LOE rbx rbp rsi rdi r8 r9 r10 r12 r13 r14 r15 ecx
..B4.4:                         # Preds ..B4.3
                                # Execution count [4.20e-01]
..LN1095:
        movl      %ecx, %r11d                                   #129.2
..LN1096:
        movl      $1, %eax                                      #129.2
..LN1097:
        shrl      $1, %r11d                                     #129.2
..LN1098:
        xorl      %edx, %edx                                    #129.2
..LN1099:
        testl     %r11d, %r11d                                  #129.2
..LN1100:
        jbe       ..B4.8        # Prob 10%                      #129.2
..LN1101:
                                # LOE rbx rbp rsi rdi r8 r9 r10 r12 r13 r14 r15 eax edx ecx r11d
..B4.5:                         # Preds ..B4.4
                                # Execution count [3.78e-01]
..LN1102:
	.loc    1  131  is_stmt 1
        movl      %r11d, %ebx                                   #131.5
..LN1103:
        lea       (,%rbp,4), %rax                               #131.5
..LN1104:
        lea       (%rsi,%rsi,2), %rbp                           #131.5
..LN1105:
        shlq      $3, %rbp                                      #131.5
..LN1106:
        movq      %rbp, %r11                                    #131.5
..LN1107:
                                # LOE rax rsi rdi r8 r9 r10 r11 r12 r13 r14 edx ecx ebx
..B4.6:                         # Preds ..B4.6 ..B4.5
                                # Execution count [1.05e+00]
..L320:
                # optimization report
                # LOOP WAS UNROLLED BY 2
                # %s was not vectorized: vector dependence prevents vectorization%s
                # VECTOR TRIP COUNT IS ESTIMATED CONSTANT
..LN1108:
	.loc    1  129  is_stmt 1
..LN1109:
	.loc    1  131  is_stmt 1
        movslq    48+cs(%rax,%r11), %r15                        #131.5
..LN1110:
	.loc    1  132  is_stmt 1
        lea       (%rsi,%rsi,2), %rsi                           #132.5
..LN1111:
        movslq    cs(%rax,%rsi,8), %rbp                         #132.5
..LN1112:
	.loc    1  129  is_stmt 1
        incl      %edx                                          #129.2
..LN1113:
	.loc    1  134  is_stmt 1
        lea       (%r15,%r15,2), %rax                           #134.3
..LN1114:
        lea       (%rdi,%rax,8), %rsi                           #134.3
..LN1115:
        incl      (%rsi,%rbp,4)                                 #134.3
..LN1116:
        lea       (,%rax,8), %r15                               #134.3
..LN1117:
	.loc    1  131  is_stmt 1
        movslq    48+cs(%r15,%rbp,4), %rsi                      #131.5
..LN1118:
	.loc    1  132  is_stmt 1
        movslq    cs(%r15,%rbp,4), %rbp                         #132.5
..LN1119:
	.loc    1  134  is_stmt 1
        lea       (%rsi,%rsi,2), %rax                           #134.3
..LN1120:
        lea       (,%rax,8), %r11                               #134.3
..LN1121:
        lea       (%rdi,%rax,8), %r15                           #134.3
..LN1122:
        lea       (,%rbp,4), %rax                               #134.3
..LN1123:
        incl      (%r15,%rax)                                   #134.3
..LN1124:
	.loc    1  129  is_stmt 1
        cmpl      %ebx, %edx                                    #129.2
..LN1125:
        jb        ..B4.6        # Prob 64%                      #129.2
..LN1126:
                                # LOE rax rbp rsi rdi r8 r9 r10 r11 r12 r13 r14 edx ecx ebx
..B4.7:                         # Preds ..B4.6
                                # Execution count [3.78e-01]
..LN1127:
	.loc    1  130  is_stmt 1
        lea       1(%rdx,%rdx), %eax                            #130.16
..LN1128:
                                # LOE rbx rbp rsi rdi r8 r9 r10 r12 r13 r14 r15 eax ecx
..B4.8:                         # Preds ..B4.7 ..B4.4
                                # Execution count [4.20e-01]
..LN1129:
	.loc    1  129  is_stmt 1
        decl      %eax                                          #129.2
..LN1130:
        cmpl      %ecx, %eax                                    #129.2
..LN1131:
        jae       ..B4.10       # Prob 10%                      #129.2
..LN1132:
                                # LOE rbx rbp rsi rdi r8 r9 r10 r12 r13 r14 r15
..B4.9:                         # Preds ..B4.8
                                # Execution count [3.78e-01]
..L321:
                # optimization report
                # REMAINDER LOOP
                # %s was not vectorized: vector dependence prevents vectorization%s
                # VECTOR TRIP COUNT IS ESTIMATED CONSTANT
..LN1133:
	.loc    1  131  is_stmt 1
        lea       (%rsi,%rsi,2), %rax                           #131.5
..LN1134:
        shlq      $3, %rax                                      #131.5
..LN1135:
        movslq    48+cs(%rax,%rbp,4), %rsi                      #131.5
..LN1136:
	.loc    1  132  is_stmt 1
        movslq    cs(%rax,%rbp,4), %rbp                         #132.5
..LN1137:
	.loc    1  134  is_stmt 1
        lea       (%rsi,%rsi,2), %r11                           #134.3
..LN1138:
        lea       (%rdi,%r11,8), %rax                           #134.3
..LN1139:
        incl      (%rax,%rbp,4)                                 #134.3
..LN1140:
	.loc    1  139  is_stmt 1
        movl      (%r10,%r8,4), %eax                            #139.10
..LN1141:
        jmp       ..B4.11       # Prob 100%                     #139.10
..LN1142:
                                # LOE rbx rbp rsi rdi r8 r9 r10 r12 r13 r14 r15 eax
..B4.10:                        # Preds ..B4.8
                                # Execution count [4.20e-02]
..LN1143:
        movl      (%r10,%r8,4), %eax                            #139.10
..LN1144:
                                # LOE rbx rbp rsi rdi r8 r9 r10 r12 r13 r14 r15 eax
..B4.11:                        # Preds ..B4.9 ..B4.10
                                # Execution count [2.10e-01]
..LN1145:
	.loc    1  140  is_stmt 1
        testl     %eax, %eax                                    #140.16
..LN1146:
        je        ..B4.24       # Prob 10%                      #140.16
..LN1147:
                                # LOE rbx rbp rsi rdi r8 r9 r10 r12 r13 r14 r15 eax
..B4.13:                        # Preds ..B4.11 ..B4.21
                                # Execution count [2.10e+00]
..L322:
                # optimization report
                # %s was not vectorized: loop control variable was not identified. Explicitly compute the iteration count before executing the loop or try using canonical loop form from OpenMP specification%s
..LN1148:
..LN1149:
	.loc    1  142  is_stmt 1
        movl      $0, (%r10,%r8,4)                              #142.3
..LN1150:
	.loc    1  143  is_stmt 1
        jle       ..B4.24       # Prob 50%                      #143.17
..LN1151:
                                # LOE rbp rsi rdi r8 r9 r10 r12 r13 r14 eax
..B4.14:                        # Preds ..B4.13
                                # Execution count [2.10e+00]
..LN1152:
        movl      %eax, %ebx                                    #143.3
..LN1153:
        movl      $1, %r15d                                     #143.3
..LN1154:
        shrl      $1, %ebx                                      #143.3
..LN1155:
        xorl      %r11d, %r11d                                  #143.3
..LN1156:
        testl     %ebx, %ebx                                    #143.3
..LN1157:
        jbe       ..B4.18       # Prob 10%                      #143.3
..LN1158:
                                # LOE rbp rsi rdi r8 r9 r10 r12 r13 r14 eax ebx r11d r15d
..B4.15:                        # Preds ..B4.14
                                # Execution count [1.89e+00]
..LN1159:
	.loc    1  145  is_stmt 1
        lea       (%rsi,%rsi,2), %rdx                           #145.6
..LN1160:
        shlq      $3, %rdx                                      #145.6
..LN1161:
        lea       (,%rbp,4), %rcx                               #145.6
..LN1162:
                                # LOE rdx rcx rsi rdi r8 r9 r10 r12 r13 r14 eax ebx r11d
..B4.16:                        # Preds ..B4.16 ..B4.15
                                # Execution count [5.25e+00]
..L323:
                # optimization report
                # LOOP WAS UNROLLED BY 2
                # %s was not vectorized: vector dependence prevents vectorization%s
                # VECTOR TRIP COUNT IS ESTIMATED CONSTANT
..LN1163:
	.loc    1  143  is_stmt 1
..LN1164:
	.loc    1  145  is_stmt 1
        movslq    48+cs(%rcx,%rdx), %rbp                        #145.6
..LN1165:
	.loc    1  146  is_stmt 1
        lea       (%rsi,%rsi,2), %rsi                           #146.6
..LN1166:
        movslq    cs(%rcx,%rsi,8), %rdx                         #146.6
..LN1167:
	.loc    1  143  is_stmt 1
        incl      %r11d                                         #143.3
..LN1168:
	.loc    1  147  is_stmt 1
        lea       (%rbp,%rbp,2), %r15                           #147.4
..LN1169:
        lea       (%rdi,%r15,8), %rsi                           #147.4
..LN1170:
        incl      (%rsi,%rdx,4)                                 #147.4
..LN1171:
        lea       (,%r15,8), %rbp                               #147.4
..LN1172:
	.loc    1  145  is_stmt 1
        movslq    48+cs(%rbp,%rdx,4), %rsi                      #145.6
..LN1173:
	.loc    1  146  is_stmt 1
        movslq    cs(%rbp,%rdx,4), %rbp                         #146.6
..LN1174:
	.loc    1  147  is_stmt 1
        lea       (%rsi,%rsi,2), %r15                           #147.4
..LN1175:
        lea       (,%r15,8), %rdx                               #147.4
..LN1176:
        lea       (%rdi,%r15,8), %r15                           #147.4
..LN1177:
        lea       (,%rbp,4), %rcx                               #147.4
..LN1178:
        incl      (%r15,%rcx)                                   #147.4
..LN1179:
	.loc    1  143  is_stmt 1
        cmpl      %ebx, %r11d                                   #143.3
..LN1180:
        jb        ..B4.16       # Prob 64%                      #143.3
..LN1181:
                                # LOE rdx rcx rbp rsi rdi r8 r9 r10 r12 r13 r14 eax ebx r11d
..B4.17:                        # Preds ..B4.16
                                # Execution count [1.89e+00]
..LN1182:
	.loc    1  144  is_stmt 1
        lea       1(%r11,%r11), %r15d                           #144.17
..LN1183:
                                # LOE rbp rsi rdi r8 r9 r10 r12 r13 r14 eax r15d
..B4.18:                        # Preds ..B4.17 ..B4.14
                                # Execution count [2.10e+00]
..LN1184:
	.loc    1  143  is_stmt 1
        decl      %r15d                                         #143.3
..LN1185:
        cmpl      %eax, %r15d                                   #143.3
..LN1186:
        jae       ..B4.20       # Prob 10%                      #143.3
..LN1187:
                                # LOE rbp rsi rdi r8 r9 r10 r12 r13 r14
..B4.19:                        # Preds ..B4.18
                                # Execution count [1.89e+00]
..L324:
                # optimization report
                # REMAINDER LOOP
                # %s was not vectorized: vector dependence prevents vectorization%s
                # VECTOR TRIP COUNT IS ESTIMATED CONSTANT
..LN1188:
	.loc    1  145  is_stmt 1
        lea       (%rsi,%rsi,2), %rax                           #145.6
..LN1189:
        shlq      $3, %rax                                      #145.6
..LN1190:
        movslq    48+cs(%rax,%rbp,4), %rsi                      #145.6
..LN1191:
	.loc    1  146  is_stmt 1
        movslq    cs(%rax,%rbp,4), %rbp                         #146.6
..LN1192:
	.loc    1  147  is_stmt 1
        lea       (%rsi,%rsi,2), %rbx                           #147.4
..LN1193:
        lea       (%rdi,%rbx,8), %r11                           #147.4
..LN1194:
        incl      (%r11,%rbp,4)                                 #147.4
..LN1195:
	.loc    1  149  is_stmt 1
        movl      (%r10,%r8,4), %eax                            #149.7
..LN1196:
        jmp       ..B4.21       # Prob 100%                     #149.7
..LN1197:
                                # LOE rbp rsi rdi r8 r9 r10 r12 r13 r14 eax
..B4.20:                        # Preds ..B4.18
                                # Execution count [2.10e-01]
..LN1198:
        movl      (%r10,%r8,4), %eax                            #149.7
..LN1199:
                                # LOE rbp rsi rdi r8 r9 r10 r12 r13 r14 eax
..B4.21:                        # Preds ..B4.19 ..B4.20
                                # Execution count [1.05e+00]
..LN1200:
	.loc    1  140  is_stmt 1
        testl     %eax, %eax                                    #140.16
..LN1201:
        jne       ..B4.13       # Prob 82%                      #140.16
..LN1202:
                                # LOE rbp rsi rdi r8 r9 r10 r12 r13 r14 eax
..B4.24:                        # Preds ..B4.21 ..B4.3 ..B4.13 ..B4.11
                                # Execution count [4.20e-01]
..LN1203:
	.loc    1  151  is_stmt 1
        cmpq      %r9, %rsi                                     #151.11
..LN1204:
        je        ..B4.36       # Prob 50%                      #151.11
..LN1205:
                                # LOE rbx rbp rsi rdi r9 r12 r13 r14 r15
..B4.25:                        # Preds ..B4.24
                                # Execution count [2.10e-01]
..LN1206:
	.loc    1  152  is_stmt 1
        testq     %rsi, %rsi                                    #152.11
..LN1207:
        jne       ..B4.31       # Prob 50%                      #152.11
..LN1208:
                                # LOE rbx rbp rsi rdi r9 r12 r13 r14 r15
..B4.26:                        # Preds ..B4.25
                                # Execution count [1.05e-01]
..LN1209:
	.loc    1  153  is_stmt 1
        cmpq      $5, %rbp                                      #153.19
..LN1210:
        jg        ..B4.36       # Prob 10%                      #153.19
..LN1211:
                                # LOE rbx rbp rdi r9 r12 r13 r14 r15
..B4.28:                        # Preds ..B4.26 ..B4.29
                                # Execution count [2.75e-01]
..L325:
                # optimization report
                # %s was not vectorized: loop with multiple exits cannot be vectorized unless it meets search loop idiom criteria
                # VECTOR TRIP COUNT IS ESTIMATED CONSTANT
..LN1212:
..LN1213:
	.loc    1  154  is_stmt 1
        movl      (%rdi,%rbp,4), %ecx                           #154.9
..LN1214:
        movl      %ecx, %eax                                    #154.33
..LN1215:
        andl      $-2, %eax                                     #154.33
..LN1216:
        cmpl      $2, %eax                                      #154.33
..LN1217:
        jne       ..B4.36       # Prob 20%                      #154.33
..LN1218:
                                # LOE rbx rbp rdi r9 r12 r13 r14 r15 ecx
..B4.29:                        # Preds ..B4.28
                                # Execution count [2.20e-01]
..LN1219:
	.loc    1  156  is_stmt 1
        movl      $0, (%rdi,%rbp,4)                             #156.6
..LN1220:
	.loc    1  153  is_stmt 1
        incq      %rbp                                          #153.21
..LN1221:
	.loc    1  155  is_stmt 1
        addl      %ecx, 48(%rdi,%r9,4)                          #155.6
..LN1222:
	.loc    1  153  is_stmt 1
        cmpq      $5, %rbp                                      #153.19
..LN1223:
        jle       ..B4.28       # Prob 82%                      #153.19
..LN1224:
        jmp       ..B4.36       # Prob 100%                     #153.19
..LN1225:
                                # LOE rbx rbp rdi r9 r12 r13 r14 r15
..B4.31:                        # Preds ..B4.25
                                # Execution count [1.05e-01]
..LN1226:
	.loc    1  162  is_stmt 1
        testq     %rbp, %rbp                                    #162.19
..LN1227:
        js        ..B4.36       # Prob 2%                       #162.19
..LN1228:
                                # LOE rbx rbp rsi rdi r9 r12 r13 r14 r15
..B4.32:                        # Preds ..B4.31
                                # Execution count [1.03e-01]
..LN1229:
	.loc    1  163  is_stmt 1
        lea       (%rsi,%rsi,2), %rax                           #163.9
..LN1230:
        lea       (%rdi,%rax,8), %rcx                           #163.9
..LN1231:
        lea       (%rcx,%rbp,4), %rax                           #163.9
..LN1232:
                                # LOE rax rbx rbp rdi r9 r12 r13 r14 r15
..B4.33:                        # Preds ..B4.34 ..B4.32
                                # Execution count [2.99e-01]
..L326:
                # optimization report
                # %s was not vectorized: loop with multiple exits cannot be vectorized unless it meets search loop idiom criteria
                # VECTOR TRIP COUNT IS ESTIMATED CONSTANT
..LN1233:
	.loc    1  162  is_stmt 1
..LN1234:
	.loc    1  163  is_stmt 1
        movl      (%rax), %esi                                  #163.9
..LN1235:
        movl      %esi, %ecx                                    #163.33
..LN1236:
        andl      $-2, %ecx                                     #163.33
..LN1237:
        cmpl      $2, %ecx                                      #163.33
..LN1238:
        jne       ..B4.36       # Prob 20%                      #163.33
..LN1239:
                                # LOE rax rbx rbp rdi r9 r12 r13 r14 r15 esi
..B4.34:                        # Preds ..B4.33
                                # Execution count [2.39e-01]
..LN1240:
	.loc    1  164  is_stmt 1
        addl      %esi, 48(%rdi,%r9,4)                          #164.6
..LN1241:
	.loc    1  165  is_stmt 1
        movl      $0, (%rax)                                    #165.6
..LN1242:
	.loc    1  162  is_stmt 1
        addq      $-4, %rax                                     #162.21
..LN1243:
        decq      %rbp                                          #162.21
..LN1244:
        jns       ..B4.33       # Prob 82%                      #162.19
..LN1245:
                                # LOE rax rbx rbp rdi r9 r12 r13 r14 r15
..B4.36:                        # Preds ..B4.33 ..B4.28 ..B4.34 ..B4.29 ..B4.26
                                #       ..B4.31 ..B4.24
                                # Execution count [4.20e-01]
..L327:
                # optimization report
                # LOOP WAS COMPLETELY UNROLLED BY 6
                # %s was not vectorized: vectorization possible but seems inefficient. Use vector always directive or -vec-threshold0 to override 
                # VECTORIZATION SPEEDUP COEFFECIENT 0.383057
                # VECTOR TRIP COUNT IS KNOWN CONSTANT
                # VECTOR LENGTH 4
                # NORMALIZED VECTORIZATION OVERHEAD 5.000000
..LN1246:
	.loc    1  99  is_stmt 1
..LN1247:
	.loc    1  173  is_stmt 1
        xorq      %rax, %rax                                    #173.2
..LN1248:
        testq     %r9, %r9                                      #173.2
..LN1249:
        sete      %al                                           #173.2
..LN1250:
	.loc    1  101  is_stmt 1
        lea       (%rax,%rax,2), %rdx                           #101.12
..LN1251:
	.loc    1  173  is_stmt 1
        xorl      %eax, %eax                                    #173.41
..LN1252:
	.loc    1  101  is_stmt 1
        movl      (%rdi,%rdx,8), %ecx                           #101.12
..LN1253:
        addl      4(%rdi,%rdx,8), %ecx                          #101.3
..LN1254:
        addl      8(%rdi,%rdx,8), %ecx                          #101.3
..LN1255:
        addl      12(%rdi,%rdx,8), %ecx                         #101.3
..LN1256:
        addl      16(%rdi,%rdx,8), %ecx                         #101.3
..LN1257:
        addl      20(%rdi,%rdx,8), %ecx                         #101.3
..LN1258:
	.loc    1  173  is_stmt 1
        setne     %al                                           #173.41
	.cfi_restore 6
..LN1259:
	.loc    1  173  epilogue_begin  is_stmt 1
        popq      %rbp                                          #173.41
	.cfi_def_cfa_offset 24
	.cfi_restore 3
..LN1260:
        popq      %rbx                                          #173.41
	.cfi_def_cfa_offset 16
	.cfi_restore 15
..LN1261:
        popq      %r15                                          #173.41
	.cfi_def_cfa_offset 8
..LN1262:
        ret                                                     #173.41
        .align    16,0x90
..LN1263:
                                # LOE
..LN1264:
	.cfi_endproc
# mark_end;
	.type	_Z10jouer_coupP3PosS0_ii,@function
	.size	_Z10jouer_coupP3PosS0_ii,.-_Z10jouer_coupP3PosS0_ii
..LN_Z10jouer_coupP3PosS0_ii.1265:
.LN_Z10jouer_coupP3PosS0_ii:
	.data
# -- End  _Z10jouer_coupP3PosS0_ii
	.text
.L_2__routine_start__Z14print_positionP3Pos_4:
# -- Begin  _Z14print_positionP3Pos
	.text
# mark_begin;
       .align    16,0x90
	.globl _Z14print_positionP3Pos
# --- print_position(Position *)
_Z14print_positionP3Pos:
# parameter 1(pos): %rdi
..B5.1:                         # Preds ..B5.0
                                # Execution count [1.00e+00]
	.cfi_startproc
	.cfi_personality 0x3,__gxx_personality_v0
..___tag_value__Z14print_positionP3Pos.338:
..L339:
                                                        #31.35
..LN1266:
	.loc    1  31  is_stmt 1
        pushq     %r15                                          #31.35
	.cfi_def_cfa_offset 16
	.cfi_offset 15, -16
..LN1267:
	.loc    1  31  prologue_end  is_stmt 1
        movq      %rdi, %r15                                    #31.35
..LN1268:
	.loc    1  32  is_stmt 1
        movl      $il0_peep_printf_format_9, %edi               #32.2
..LN1269:
        call      puts                                          #32.2
..LN1270:
                                # LOE rbx rbp r12 r13 r14 r15
..B5.2:                         # Preds ..B5.1
                                # Execution count [1.00e+00]
..L343:
                # optimization report
                # LOOP WAS COMPLETELY UNROLLED BY 6
                # %s was not vectorized: vector dependence prevents vectorization%s
                # VECTOR TRIP COUNT IS KNOWN CONSTANT
..LN1271:
	.loc    1  33  is_stmt 1
..LN1272:
	.loc    1  34  is_stmt 1
        movl      $.L_2__STRING.1, %edi                         #34.3
..LN1273:
        xorl      %eax, %eax                                    #34.3
..LN1274:
        movl      20(%r15), %esi                                #34.3
..___tag_value__Z14print_positionP3Pos.344:
..LN1275:
#       printf(const char *, ...)
        call      printf                                        #34.3
..___tag_value__Z14print_positionP3Pos.345:
..LN1276:
                                # LOE rbx rbp r12 r13 r14 r15
..B5.3:                         # Preds ..B5.2
                                # Execution count [1.00e+00]
..LN1277:
        movl      $.L_2__STRING.1, %edi                         #34.3
..LN1278:
        xorl      %eax, %eax                                    #34.3
..LN1279:
        movl      16(%r15), %esi                                #34.3
..___tag_value__Z14print_positionP3Pos.346:
..LN1280:
#       printf(const char *, ...)
        call      printf                                        #34.3
..___tag_value__Z14print_positionP3Pos.347:
..LN1281:
                                # LOE rbx rbp r12 r13 r14 r15
..B5.4:                         # Preds ..B5.3
                                # Execution count [1.00e+00]
..LN1282:
        movl      $.L_2__STRING.1, %edi                         #34.3
..LN1283:
        xorl      %eax, %eax                                    #34.3
..LN1284:
        movl      12(%r15), %esi                                #34.3
..___tag_value__Z14print_positionP3Pos.348:
..LN1285:
#       printf(const char *, ...)
        call      printf                                        #34.3
..___tag_value__Z14print_positionP3Pos.349:
..LN1286:
                                # LOE rbx rbp r12 r13 r14 r15
..B5.5:                         # Preds ..B5.4
                                # Execution count [1.00e+00]
..LN1287:
        movl      $.L_2__STRING.1, %edi                         #34.3
..LN1288:
        xorl      %eax, %eax                                    #34.3
..LN1289:
        movl      8(%r15), %esi                                 #34.3
..___tag_value__Z14print_positionP3Pos.350:
..LN1290:
#       printf(const char *, ...)
        call      printf                                        #34.3
..___tag_value__Z14print_positionP3Pos.351:
..LN1291:
                                # LOE rbx rbp r12 r13 r14 r15
..B5.6:                         # Preds ..B5.5
                                # Execution count [1.00e+00]
..LN1292:
        movl      $.L_2__STRING.1, %edi                         #34.3
..LN1293:
        xorl      %eax, %eax                                    #34.3
..LN1294:
        movl      4(%r15), %esi                                 #34.3
..___tag_value__Z14print_positionP3Pos.352:
..LN1295:
#       printf(const char *, ...)
        call      printf                                        #34.3
..___tag_value__Z14print_positionP3Pos.353:
..LN1296:
                                # LOE rbx rbp r12 r13 r14 r15
..B5.7:                         # Preds ..B5.6
                                # Execution count [1.00e+00]
..LN1297:
        movl      $.L_2__STRING.1, %edi                         #34.3
..LN1298:
        xorl      %eax, %eax                                    #34.3
..LN1299:
        movl      (%r15), %esi                                  #34.3
..___tag_value__Z14print_positionP3Pos.354:
..LN1300:
#       printf(const char *, ...)
        call      printf                                        #34.3
..___tag_value__Z14print_positionP3Pos.355:
..LN1301:
                                # LOE rbx rbp r12 r13 r14 r15
..B5.8:                         # Preds ..B5.7
                                # Execution count [1.00e+00]
..LN1302:
	.loc    1  36  is_stmt 1
        movl      $.L_2__STRING.2, %edi                         #36.2
..LN1303:
        xorl      %eax, %eax                                    #36.2
..LN1304:
        movl      48(%r15), %esi                                #36.2
..___tag_value__Z14print_positionP3Pos.356:
..LN1305:
#       printf(const char *, ...)
        call      printf                                        #36.2
..___tag_value__Z14print_positionP3Pos.357:
..LN1306:
                                # LOE rbx rbp r12 r13 r14 r15
..B5.9:                         # Preds ..B5.8
                                # Execution count [1.00e+00]
..L358:
                # optimization report
                # LOOP WAS COMPLETELY UNROLLED BY 6
                # %s was not vectorized: vector dependence prevents vectorization%s
                # VECTOR TRIP COUNT IS KNOWN CONSTANT
..LN1307:
	.loc    1  37  is_stmt 1
..LN1308:
	.loc    1  38  is_stmt 1
        movl      $.L_2__STRING.1, %edi                         #38.3
..LN1309:
        xorl      %eax, %eax                                    #38.3
..LN1310:
        movl      44(%r15), %esi                                #38.3
..___tag_value__Z14print_positionP3Pos.359:
..LN1311:
#       printf(const char *, ...)
        call      printf                                        #38.3
..___tag_value__Z14print_positionP3Pos.360:
..LN1312:
                                # LOE rbx rbp r12 r13 r14 r15
..B5.10:                        # Preds ..B5.9
                                # Execution count [1.00e+00]
..LN1313:
        movl      $.L_2__STRING.1, %edi                         #38.3
..LN1314:
        xorl      %eax, %eax                                    #38.3
..LN1315:
        movl      40(%r15), %esi                                #38.3
..___tag_value__Z14print_positionP3Pos.361:
..LN1316:
#       printf(const char *, ...)
        call      printf                                        #38.3
..___tag_value__Z14print_positionP3Pos.362:
..LN1317:
                                # LOE rbx rbp r12 r13 r14 r15
..B5.11:                        # Preds ..B5.10
                                # Execution count [1.00e+00]
..LN1318:
        movl      $.L_2__STRING.1, %edi                         #38.3
..LN1319:
        xorl      %eax, %eax                                    #38.3
..LN1320:
        movl      36(%r15), %esi                                #38.3
..___tag_value__Z14print_positionP3Pos.363:
..LN1321:
#       printf(const char *, ...)
        call      printf                                        #38.3
..___tag_value__Z14print_positionP3Pos.364:
..LN1322:
                                # LOE rbx rbp r12 r13 r14 r15
..B5.12:                        # Preds ..B5.11
                                # Execution count [1.00e+00]
..LN1323:
        movl      $.L_2__STRING.1, %edi                         #38.3
..LN1324:
        xorl      %eax, %eax                                    #38.3
..LN1325:
        movl      32(%r15), %esi                                #38.3
..___tag_value__Z14print_positionP3Pos.365:
..LN1326:
#       printf(const char *, ...)
        call      printf                                        #38.3
..___tag_value__Z14print_positionP3Pos.366:
..LN1327:
                                # LOE rbx rbp r12 r13 r14 r15
..B5.13:                        # Preds ..B5.12
                                # Execution count [1.00e+00]
..LN1328:
        movl      $.L_2__STRING.1, %edi                         #38.3
..LN1329:
        xorl      %eax, %eax                                    #38.3
..LN1330:
        movl      28(%r15), %esi                                #38.3
..___tag_value__Z14print_positionP3Pos.367:
..LN1331:
#       printf(const char *, ...)
        call      printf                                        #38.3
..___tag_value__Z14print_positionP3Pos.368:
..LN1332:
                                # LOE rbx rbp r12 r13 r14 r15
..B5.14:                        # Preds ..B5.13
                                # Execution count [1.00e+00]
..LN1333:
        movl      $.L_2__STRING.1, %edi                         #38.3
..LN1334:
        xorl      %eax, %eax                                    #38.3
..LN1335:
        movl      24(%r15), %esi                                #38.3
..___tag_value__Z14print_positionP3Pos.369:
..LN1336:
#       printf(const char *, ...)
        call      printf                                        #38.3
..___tag_value__Z14print_positionP3Pos.370:
..LN1337:
                                # LOE rbx rbp r12 r13 r14 r15
..B5.15:                        # Preds ..B5.14
                                # Execution count [1.00e+00]
..LN1338:
	.loc    1  40  is_stmt 1
        movl      52(%r15), %esi                                #40.2
..LN1339:
        movl      $.L_2__STRING.3, %edi                         #40.2
..LN1340:
        xorl      %eax, %eax                                    #40.2
	.cfi_restore 15
..LN1341:
	.loc    1  40  epilogue_begin  is_stmt 1
        popq      %r15                                          #40.2
	.cfi_def_cfa_offset 8
..LN1342:
#       printf(const char *, ...)
        jmp       printf                                        #40.2
        .align    16,0x90
..LN1343:
                                # LOE
..LN1344:
	.cfi_endproc
# mark_end;
	.type	_Z14print_positionP3Pos,@function
	.size	_Z14print_positionP3Pos,.-_Z14print_positionP3Pos
..LN_Z14print_positionP3Pos.1345:
.LN_Z14print_positionP3Pos:
	.section .rodata.str1.4, "aMS",@progbits,1
	.space 3, 0x00 	# pad
	.align 4
il0_peep_printf_format_9:
	.long	757935405
	.long	757935405
	.long	757935405
	.long	757935405
	.long	757935405
	.long	757935405
	.word	11565
	.byte	0
	.data
# -- End  _Z14print_positionP3Pos
	.text
.L_2__routine_start__Z27print_position_ordi_bas_invP3Pos_5:
# -- Begin  _Z27print_position_ordi_bas_invP3Pos
	.text
# mark_begin;
       .align    16,0x90
	.globl _Z27print_position_ordi_bas_invP3Pos
# --- print_position_ordi_bas_inv(Position *)
_Z27print_position_ordi_bas_invP3Pos:
# parameter 1(pos): %rdi
..B6.1:                         # Preds ..B6.0
                                # Execution count [1.00e+00]
	.cfi_startproc
	.cfi_personality 0x3,__gxx_personality_v0
..___tag_value__Z27print_position_ordi_bas_invP3Pos.377:
..L378:
                                                        #43.48
..LN1346:
	.loc    1  43  is_stmt 1
        pushq     %r15                                          #43.48
	.cfi_def_cfa_offset 16
	.cfi_offset 15, -16
..LN1347:
	.loc    1  43  prologue_end  is_stmt 1
        movq      %rdi, %r15                                    #43.48
..LN1348:
	.loc    1  44  is_stmt 1
        movl      $il0_peep_printf_format_10, %edi              #44.2
..LN1349:
        call      puts                                          #44.2
..LN1350:
                                # LOE rbx rbp r12 r13 r14 r15
..B6.2:                         # Preds ..B6.1
                                # Execution count [1.00e+00]
..L382:
                # optimization report
                # LOOP WAS COMPLETELY UNROLLED BY 6
                # %s was not vectorized: vector dependence prevents vectorization%s
                # VECTOR TRIP COUNT IS KNOWN CONSTANT
..LN1351:
	.loc    1  45  is_stmt 1
..LN1352:
	.loc    1  46  is_stmt 1
        movl      $.L_2__STRING.1, %edi                         #46.3
..LN1353:
        xorl      %eax, %eax                                    #46.3
..LN1354:
        movl      24(%r15), %esi                                #46.3
..___tag_value__Z27print_position_ordi_bas_invP3Pos.383:
..LN1355:
#       printf(const char *, ...)
        call      printf                                        #46.3
..___tag_value__Z27print_position_ordi_bas_invP3Pos.384:
..LN1356:
                                # LOE rbx rbp r12 r13 r14 r15
..B6.3:                         # Preds ..B6.2
                                # Execution count [1.00e+00]
..LN1357:
        movl      $.L_2__STRING.1, %edi                         #46.3
..LN1358:
        xorl      %eax, %eax                                    #46.3
..LN1359:
        movl      28(%r15), %esi                                #46.3
..___tag_value__Z27print_position_ordi_bas_invP3Pos.385:
..LN1360:
#       printf(const char *, ...)
        call      printf                                        #46.3
..___tag_value__Z27print_position_ordi_bas_invP3Pos.386:
..LN1361:
                                # LOE rbx rbp r12 r13 r14 r15
..B6.4:                         # Preds ..B6.3
                                # Execution count [1.00e+00]
..LN1362:
        movl      $.L_2__STRING.1, %edi                         #46.3
..LN1363:
        xorl      %eax, %eax                                    #46.3
..LN1364:
        movl      32(%r15), %esi                                #46.3
..___tag_value__Z27print_position_ordi_bas_invP3Pos.387:
..LN1365:
#       printf(const char *, ...)
        call      printf                                        #46.3
..___tag_value__Z27print_position_ordi_bas_invP3Pos.388:
..LN1366:
                                # LOE rbx rbp r12 r13 r14 r15
..B6.5:                         # Preds ..B6.4
                                # Execution count [1.00e+00]
..LN1367:
        movl      $.L_2__STRING.1, %edi                         #46.3
..LN1368:
        xorl      %eax, %eax                                    #46.3
..LN1369:
        movl      36(%r15), %esi                                #46.3
..___tag_value__Z27print_position_ordi_bas_invP3Pos.389:
..LN1370:
#       printf(const char *, ...)
        call      printf                                        #46.3
..___tag_value__Z27print_position_ordi_bas_invP3Pos.390:
..LN1371:
                                # LOE rbx rbp r12 r13 r14 r15
..B6.6:                         # Preds ..B6.5
                                # Execution count [1.00e+00]
..LN1372:
        movl      $.L_2__STRING.1, %edi                         #46.3
..LN1373:
        xorl      %eax, %eax                                    #46.3
..LN1374:
        movl      40(%r15), %esi                                #46.3
..___tag_value__Z27print_position_ordi_bas_invP3Pos.391:
..LN1375:
#       printf(const char *, ...)
        call      printf                                        #46.3
..___tag_value__Z27print_position_ordi_bas_invP3Pos.392:
..LN1376:
                                # LOE rbx rbp r12 r13 r14 r15
..B6.7:                         # Preds ..B6.6
                                # Execution count [1.00e+00]
..LN1377:
        movl      $.L_2__STRING.1, %edi                         #46.3
..LN1378:
        xorl      %eax, %eax                                    #46.3
..LN1379:
        movl      44(%r15), %esi                                #46.3
..___tag_value__Z27print_position_ordi_bas_invP3Pos.393:
..LN1380:
#       printf(const char *, ...)
        call      printf                                        #46.3
..___tag_value__Z27print_position_ordi_bas_invP3Pos.394:
..LN1381:
                                # LOE rbx rbp r12 r13 r14 r15
..B6.8:                         # Preds ..B6.7
                                # Execution count [1.00e+00]
..LN1382:
	.loc    1  48  is_stmt 1
        movl      $.L_2__STRING.2, %edi                         #48.2
..LN1383:
        xorl      %eax, %eax                                    #48.2
..LN1384:
        movl      52(%r15), %esi                                #48.2
..___tag_value__Z27print_position_ordi_bas_invP3Pos.395:
..LN1385:
#       printf(const char *, ...)
        call      printf                                        #48.2
..___tag_value__Z27print_position_ordi_bas_invP3Pos.396:
..LN1386:
                                # LOE rbx rbp r12 r13 r14 r15
..B6.9:                         # Preds ..B6.8
                                # Execution count [1.00e+00]
..L397:
                # optimization report
                # LOOP WAS COMPLETELY UNROLLED BY 6
                # %s was not vectorized: vector dependence prevents vectorization%s
                # VECTOR TRIP COUNT IS KNOWN CONSTANT
..LN1387:
	.loc    1  49  is_stmt 1
..LN1388:
	.loc    1  50  is_stmt 1
        movl      $.L_2__STRING.1, %edi                         #50.3
..LN1389:
        xorl      %eax, %eax                                    #50.3
..LN1390:
        movl      (%r15), %esi                                  #50.3
..___tag_value__Z27print_position_ordi_bas_invP3Pos.398:
..LN1391:
#       printf(const char *, ...)
        call      printf                                        #50.3
..___tag_value__Z27print_position_ordi_bas_invP3Pos.399:
..LN1392:
                                # LOE rbx rbp r12 r13 r14 r15
..B6.10:                        # Preds ..B6.9
                                # Execution count [1.00e+00]
..LN1393:
        movl      $.L_2__STRING.1, %edi                         #50.3
..LN1394:
        xorl      %eax, %eax                                    #50.3
..LN1395:
        movl      4(%r15), %esi                                 #50.3
..___tag_value__Z27print_position_ordi_bas_invP3Pos.400:
..LN1396:
#       printf(const char *, ...)
        call      printf                                        #50.3
..___tag_value__Z27print_position_ordi_bas_invP3Pos.401:
..LN1397:
                                # LOE rbx rbp r12 r13 r14 r15
..B6.11:                        # Preds ..B6.10
                                # Execution count [1.00e+00]
..LN1398:
        movl      $.L_2__STRING.1, %edi                         #50.3
..LN1399:
        xorl      %eax, %eax                                    #50.3
..LN1400:
        movl      8(%r15), %esi                                 #50.3
..___tag_value__Z27print_position_ordi_bas_invP3Pos.402:
..LN1401:
#       printf(const char *, ...)
        call      printf                                        #50.3
..___tag_value__Z27print_position_ordi_bas_invP3Pos.403:
..LN1402:
                                # LOE rbx rbp r12 r13 r14 r15
..B6.12:                        # Preds ..B6.11
                                # Execution count [1.00e+00]
..LN1403:
        movl      $.L_2__STRING.1, %edi                         #50.3
..LN1404:
        xorl      %eax, %eax                                    #50.3
..LN1405:
        movl      12(%r15), %esi                                #50.3
..___tag_value__Z27print_position_ordi_bas_invP3Pos.404:
..LN1406:
#       printf(const char *, ...)
        call      printf                                        #50.3
..___tag_value__Z27print_position_ordi_bas_invP3Pos.405:
..LN1407:
                                # LOE rbx rbp r12 r13 r14 r15
..B6.13:                        # Preds ..B6.12
                                # Execution count [1.00e+00]
..LN1408:
        movl      $.L_2__STRING.1, %edi                         #50.3
..LN1409:
        xorl      %eax, %eax                                    #50.3
..LN1410:
        movl      16(%r15), %esi                                #50.3
..___tag_value__Z27print_position_ordi_bas_invP3Pos.406:
..LN1411:
#       printf(const char *, ...)
        call      printf                                        #50.3
..___tag_value__Z27print_position_ordi_bas_invP3Pos.407:
..LN1412:
                                # LOE rbx rbp r12 r13 r14 r15
..B6.14:                        # Preds ..B6.13
                                # Execution count [1.00e+00]
..LN1413:
        movl      $.L_2__STRING.1, %edi                         #50.3
..LN1414:
        xorl      %eax, %eax                                    #50.3
..LN1415:
        movl      20(%r15), %esi                                #50.3
..___tag_value__Z27print_position_ordi_bas_invP3Pos.408:
..LN1416:
#       printf(const char *, ...)
        call      printf                                        #50.3
..___tag_value__Z27print_position_ordi_bas_invP3Pos.409:
..LN1417:
                                # LOE rbx rbp r12 r13 r14 r15
..B6.15:                        # Preds ..B6.14
                                # Execution count [1.00e+00]
..LN1418:
	.loc    1  52  is_stmt 1
        movl      48(%r15), %esi                                #52.2
..LN1419:
        movl      $.L_2__STRING.3, %edi                         #52.2
..LN1420:
        xorl      %eax, %eax                                    #52.2
	.cfi_restore 15
..LN1421:
	.loc    1  52  epilogue_begin  is_stmt 1
        popq      %r15                                          #52.2
	.cfi_def_cfa_offset 8
..LN1422:
#       printf(const char *, ...)
        jmp       printf                                        #52.2
        .align    16,0x90
..LN1423:
                                # LOE
..LN1424:
	.cfi_endproc
# mark_end;
	.type	_Z27print_position_ordi_bas_invP3Pos,@function
	.size	_Z27print_position_ordi_bas_invP3Pos,.-_Z27print_position_ordi_bas_invP3Pos
..LN_Z27print_position_ordi_bas_invP3Pos.1425:
.LN_Z27print_position_ordi_bas_invP3Pos:
	.section .rodata.str1.4, "aMS",@progbits,1
	.space 1, 0x00 	# pad
	.align 4
il0_peep_printf_format_10:
	.long	757935405
	.long	757935405
	.long	757935405
	.long	757935405
	.long	757935405
	.long	757935405
	.word	11565
	.byte	0
	.data
# -- End  _Z27print_position_ordi_bas_invP3Pos
	.text
.L_2__routine_start__Z28print_position_ordi_haut_invP3Pos_6:
# -- Begin  _Z28print_position_ordi_haut_invP3Pos
	.text
# mark_begin;
       .align    16,0x90
	.globl _Z28print_position_ordi_haut_invP3Pos
# --- print_position_ordi_haut_inv(Position *)
_Z28print_position_ordi_haut_invP3Pos:
# parameter 1(pos): %rdi
..B7.1:                         # Preds ..B7.0
                                # Execution count [1.00e+00]
	.cfi_startproc
	.cfi_personality 0x3,__gxx_personality_v0
..___tag_value__Z28print_position_ordi_haut_invP3Pos.416:
..L417:
                                                        #55.49
..LN1426:
	.loc    1  55  is_stmt 1
        pushq     %r15                                          #55.49
	.cfi_def_cfa_offset 16
	.cfi_offset 15, -16
..LN1427:
	.loc    1  55  prologue_end  is_stmt 1
        movq      %rdi, %r15                                    #55.49
..LN1428:
	.loc    1  56  is_stmt 1
        movl      $il0_peep_printf_format_11, %edi              #56.2
..LN1429:
        call      puts                                          #56.2
..LN1430:
                                # LOE rbx rbp r12 r13 r14 r15
..B7.2:                         # Preds ..B7.1
                                # Execution count [1.00e+00]
..L421:
                # optimization report
                # LOOP WAS COMPLETELY UNROLLED BY 6
                # %s was not vectorized: vector dependence prevents vectorization%s
                # VECTOR TRIP COUNT IS KNOWN CONSTANT
..LN1431:
	.loc    1  57  is_stmt 1
..LN1432:
	.loc    1  58  is_stmt 1
        movl      $.L_2__STRING.1, %edi                         #58.3
..LN1433:
        xorl      %eax, %eax                                    #58.3
..LN1434:
        movl      20(%r15), %esi                                #58.3
..___tag_value__Z28print_position_ordi_haut_invP3Pos.422:
..LN1435:
#       printf(const char *, ...)
        call      printf                                        #58.3
..___tag_value__Z28print_position_ordi_haut_invP3Pos.423:
..LN1436:
                                # LOE rbx rbp r12 r13 r14 r15
..B7.3:                         # Preds ..B7.2
                                # Execution count [1.00e+00]
..LN1437:
        movl      $.L_2__STRING.1, %edi                         #58.3
..LN1438:
        xorl      %eax, %eax                                    #58.3
..LN1439:
        movl      16(%r15), %esi                                #58.3
..___tag_value__Z28print_position_ordi_haut_invP3Pos.424:
..LN1440:
#       printf(const char *, ...)
        call      printf                                        #58.3
..___tag_value__Z28print_position_ordi_haut_invP3Pos.425:
..LN1441:
                                # LOE rbx rbp r12 r13 r14 r15
..B7.4:                         # Preds ..B7.3
                                # Execution count [1.00e+00]
..LN1442:
        movl      $.L_2__STRING.1, %edi                         #58.3
..LN1443:
        xorl      %eax, %eax                                    #58.3
..LN1444:
        movl      12(%r15), %esi                                #58.3
..___tag_value__Z28print_position_ordi_haut_invP3Pos.426:
..LN1445:
#       printf(const char *, ...)
        call      printf                                        #58.3
..___tag_value__Z28print_position_ordi_haut_invP3Pos.427:
..LN1446:
                                # LOE rbx rbp r12 r13 r14 r15
..B7.5:                         # Preds ..B7.4
                                # Execution count [1.00e+00]
..LN1447:
        movl      $.L_2__STRING.1, %edi                         #58.3
..LN1448:
        xorl      %eax, %eax                                    #58.3
..LN1449:
        movl      8(%r15), %esi                                 #58.3
..___tag_value__Z28print_position_ordi_haut_invP3Pos.428:
..LN1450:
#       printf(const char *, ...)
        call      printf                                        #58.3
..___tag_value__Z28print_position_ordi_haut_invP3Pos.429:
..LN1451:
                                # LOE rbx rbp r12 r13 r14 r15
..B7.6:                         # Preds ..B7.5
                                # Execution count [1.00e+00]
..LN1452:
        movl      $.L_2__STRING.1, %edi                         #58.3
..LN1453:
        xorl      %eax, %eax                                    #58.3
..LN1454:
        movl      4(%r15), %esi                                 #58.3
..___tag_value__Z28print_position_ordi_haut_invP3Pos.430:
..LN1455:
#       printf(const char *, ...)
        call      printf                                        #58.3
..___tag_value__Z28print_position_ordi_haut_invP3Pos.431:
..LN1456:
                                # LOE rbx rbp r12 r13 r14 r15
..B7.7:                         # Preds ..B7.6
                                # Execution count [1.00e+00]
..LN1457:
        movl      $.L_2__STRING.1, %edi                         #58.3
..LN1458:
        xorl      %eax, %eax                                    #58.3
..LN1459:
        movl      (%r15), %esi                                  #58.3
..___tag_value__Z28print_position_ordi_haut_invP3Pos.432:
..LN1460:
#       printf(const char *, ...)
        call      printf                                        #58.3
..___tag_value__Z28print_position_ordi_haut_invP3Pos.433:
..LN1461:
                                # LOE rbx rbp r12 r13 r14 r15
..B7.8:                         # Preds ..B7.7
                                # Execution count [1.00e+00]
..LN1462:
	.loc    1  60  is_stmt 1
        movl      $.L_2__STRING.2, %edi                         #60.2
..LN1463:
        xorl      %eax, %eax                                    #60.2
..LN1464:
        movl      48(%r15), %esi                                #60.2
..___tag_value__Z28print_position_ordi_haut_invP3Pos.434:
..LN1465:
#       printf(const char *, ...)
        call      printf                                        #60.2
..___tag_value__Z28print_position_ordi_haut_invP3Pos.435:
..LN1466:
                                # LOE rbx rbp r12 r13 r14 r15
..B7.9:                         # Preds ..B7.8
                                # Execution count [1.00e+00]
..L436:
                # optimization report
                # LOOP WAS COMPLETELY UNROLLED BY 6
                # %s was not vectorized: vector dependence prevents vectorization%s
                # VECTOR TRIP COUNT IS KNOWN CONSTANT
..LN1467:
	.loc    1  61  is_stmt 1
..LN1468:
	.loc    1  62  is_stmt 1
        movl      $.L_2__STRING.1, %edi                         #62.3
..LN1469:
        xorl      %eax, %eax                                    #62.3
..LN1470:
        movl      44(%r15), %esi                                #62.3
..___tag_value__Z28print_position_ordi_haut_invP3Pos.437:
..LN1471:
#       printf(const char *, ...)
        call      printf                                        #62.3
..___tag_value__Z28print_position_ordi_haut_invP3Pos.438:
..LN1472:
                                # LOE rbx rbp r12 r13 r14 r15
..B7.10:                        # Preds ..B7.9
                                # Execution count [1.00e+00]
..LN1473:
        movl      $.L_2__STRING.1, %edi                         #62.3
..LN1474:
        xorl      %eax, %eax                                    #62.3
..LN1475:
        movl      40(%r15), %esi                                #62.3
..___tag_value__Z28print_position_ordi_haut_invP3Pos.439:
..LN1476:
#       printf(const char *, ...)
        call      printf                                        #62.3
..___tag_value__Z28print_position_ordi_haut_invP3Pos.440:
..LN1477:
                                # LOE rbx rbp r12 r13 r14 r15
..B7.11:                        # Preds ..B7.10
                                # Execution count [1.00e+00]
..LN1478:
        movl      $.L_2__STRING.1, %edi                         #62.3
..LN1479:
        xorl      %eax, %eax                                    #62.3
..LN1480:
        movl      36(%r15), %esi                                #62.3
..___tag_value__Z28print_position_ordi_haut_invP3Pos.441:
..LN1481:
#       printf(const char *, ...)
        call      printf                                        #62.3
..___tag_value__Z28print_position_ordi_haut_invP3Pos.442:
..LN1482:
                                # LOE rbx rbp r12 r13 r14 r15
..B7.12:                        # Preds ..B7.11
                                # Execution count [1.00e+00]
..LN1483:
        movl      $.L_2__STRING.1, %edi                         #62.3
..LN1484:
        xorl      %eax, %eax                                    #62.3
..LN1485:
        movl      32(%r15), %esi                                #62.3
..___tag_value__Z28print_position_ordi_haut_invP3Pos.443:
..LN1486:
#       printf(const char *, ...)
        call      printf                                        #62.3
..___tag_value__Z28print_position_ordi_haut_invP3Pos.444:
..LN1487:
                                # LOE rbx rbp r12 r13 r14 r15
..B7.13:                        # Preds ..B7.12
                                # Execution count [1.00e+00]
..LN1488:
        movl      $.L_2__STRING.1, %edi                         #62.3
..LN1489:
        xorl      %eax, %eax                                    #62.3
..LN1490:
        movl      28(%r15), %esi                                #62.3
..___tag_value__Z28print_position_ordi_haut_invP3Pos.445:
..LN1491:
#       printf(const char *, ...)
        call      printf                                        #62.3
..___tag_value__Z28print_position_ordi_haut_invP3Pos.446:
..LN1492:
                                # LOE rbx rbp r12 r13 r14 r15
..B7.14:                        # Preds ..B7.13
                                # Execution count [1.00e+00]
..LN1493:
        movl      $.L_2__STRING.1, %edi                         #62.3
..LN1494:
        xorl      %eax, %eax                                    #62.3
..LN1495:
        movl      24(%r15), %esi                                #62.3
..___tag_value__Z28print_position_ordi_haut_invP3Pos.447:
..LN1496:
#       printf(const char *, ...)
        call      printf                                        #62.3
..___tag_value__Z28print_position_ordi_haut_invP3Pos.448:
..LN1497:
                                # LOE rbx rbp r12 r13 r14 r15
..B7.15:                        # Preds ..B7.14
                                # Execution count [1.00e+00]
..LN1498:
	.loc    1  64  is_stmt 1
        movl      52(%r15), %esi                                #64.2
..LN1499:
        movl      $.L_2__STRING.3, %edi                         #64.2
..LN1500:
        xorl      %eax, %eax                                    #64.2
	.cfi_restore 15
..LN1501:
	.loc    1  64  epilogue_begin  is_stmt 1
        popq      %r15                                          #64.2
	.cfi_def_cfa_offset 8
..LN1502:
#       printf(const char *, ...)
        jmp       printf                                        #64.2
        .align    16,0x90
..LN1503:
                                # LOE
..LN1504:
	.cfi_endproc
# mark_end;
	.type	_Z28print_position_ordi_haut_invP3Pos,@function
	.size	_Z28print_position_ordi_haut_invP3Pos,.-_Z28print_position_ordi_haut_invP3Pos
..LN_Z28print_position_ordi_haut_invP3Pos.1505:
.LN_Z28print_position_ordi_haut_invP3Pos:
	.section .rodata.str1.4, "aMS",@progbits,1
	.space 1, 0x00 	# pad
	.align 4
il0_peep_printf_format_11:
	.long	757935405
	.long	757935405
	.long	757935405
	.long	757935405
	.long	757935405
	.long	757935405
	.word	11565
	.byte	0
	.data
# -- End  _Z28print_position_ordi_haut_invP3Pos
	.text
.L_2__routine_start__Z23print_position_ordi_basP3Pos_7:
# -- Begin  _Z23print_position_ordi_basP3Pos
	.text
# mark_begin;
       .align    16,0x90
	.globl _Z23print_position_ordi_basP3Pos
# --- print_position_ordi_bas(Position *)
_Z23print_position_ordi_basP3Pos:
# parameter 1(pos): %rdi
..B8.1:                         # Preds ..B8.0
                                # Execution count [1.00e+00]
	.cfi_startproc
	.cfi_personality 0x3,__gxx_personality_v0
..___tag_value__Z23print_position_ordi_basP3Pos.455:
..L456:
                                                        #72.44
..LN1506:
	.loc    1  72  is_stmt 1
        pushq     %r15                                          #72.44
	.cfi_def_cfa_offset 16
	.cfi_offset 15, -16
..LN1507:
	.loc    1  72  prologue_end  is_stmt 1
        movq      %rdi, %r15                                    #72.44
..LN1508:
	.loc    1  73  is_stmt 1
        movl      $il0_peep_printf_format_12, %edi              #73.2
..LN1509:
        call      puts                                          #73.2
..LN1510:
                                # LOE rbx rbp r12 r13 r14 r15
..B8.2:                         # Preds ..B8.1
                                # Execution count [1.00e+00]
..L460:
                # optimization report
                # LOOP WAS COMPLETELY UNROLLED BY 6
                # %s was not vectorized: vector dependence prevents vectorization%s
                # VECTOR TRIP COUNT IS KNOWN CONSTANT
..LN1511:
	.loc    1  74  is_stmt 1
..LN1512:
	.loc    1  75  is_stmt 1
        movl      $.L_2__STRING.1, %edi                         #75.3
..LN1513:
        xorl      %eax, %eax                                    #75.3
..LN1514:
        movl      44(%r15), %esi                                #75.3
..___tag_value__Z23print_position_ordi_basP3Pos.461:
..LN1515:
#       printf(const char *, ...)
        call      printf                                        #75.3
..___tag_value__Z23print_position_ordi_basP3Pos.462:
..LN1516:
                                # LOE rbx rbp r12 r13 r14 r15
..B8.3:                         # Preds ..B8.2
                                # Execution count [1.00e+00]
..LN1517:
        movl      $.L_2__STRING.1, %edi                         #75.3
..LN1518:
        xorl      %eax, %eax                                    #75.3
..LN1519:
        movl      40(%r15), %esi                                #75.3
..___tag_value__Z23print_position_ordi_basP3Pos.463:
..LN1520:
#       printf(const char *, ...)
        call      printf                                        #75.3
..___tag_value__Z23print_position_ordi_basP3Pos.464:
..LN1521:
                                # LOE rbx rbp r12 r13 r14 r15
..B8.4:                         # Preds ..B8.3
                                # Execution count [1.00e+00]
..LN1522:
        movl      $.L_2__STRING.1, %edi                         #75.3
..LN1523:
        xorl      %eax, %eax                                    #75.3
..LN1524:
        movl      36(%r15), %esi                                #75.3
..___tag_value__Z23print_position_ordi_basP3Pos.465:
..LN1525:
#       printf(const char *, ...)
        call      printf                                        #75.3
..___tag_value__Z23print_position_ordi_basP3Pos.466:
..LN1526:
                                # LOE rbx rbp r12 r13 r14 r15
..B8.5:                         # Preds ..B8.4
                                # Execution count [1.00e+00]
..LN1527:
        movl      $.L_2__STRING.1, %edi                         #75.3
..LN1528:
        xorl      %eax, %eax                                    #75.3
..LN1529:
        movl      32(%r15), %esi                                #75.3
..___tag_value__Z23print_position_ordi_basP3Pos.467:
..LN1530:
#       printf(const char *, ...)
        call      printf                                        #75.3
..___tag_value__Z23print_position_ordi_basP3Pos.468:
..LN1531:
                                # LOE rbx rbp r12 r13 r14 r15
..B8.6:                         # Preds ..B8.5
                                # Execution count [1.00e+00]
..LN1532:
        movl      $.L_2__STRING.1, %edi                         #75.3
..LN1533:
        xorl      %eax, %eax                                    #75.3
..LN1534:
        movl      28(%r15), %esi                                #75.3
..___tag_value__Z23print_position_ordi_basP3Pos.469:
..LN1535:
#       printf(const char *, ...)
        call      printf                                        #75.3
..___tag_value__Z23print_position_ordi_basP3Pos.470:
..LN1536:
                                # LOE rbx rbp r12 r13 r14 r15
..B8.7:                         # Preds ..B8.6
                                # Execution count [1.00e+00]
..LN1537:
        movl      $.L_2__STRING.1, %edi                         #75.3
..LN1538:
        xorl      %eax, %eax                                    #75.3
..LN1539:
        movl      24(%r15), %esi                                #75.3
..___tag_value__Z23print_position_ordi_basP3Pos.471:
..LN1540:
#       printf(const char *, ...)
        call      printf                                        #75.3
..___tag_value__Z23print_position_ordi_basP3Pos.472:
..LN1541:
                                # LOE rbx rbp r12 r13 r14 r15
..B8.8:                         # Preds ..B8.7
                                # Execution count [1.00e+00]
..LN1542:
	.loc    1  77  is_stmt 1
        movl      $.L_2__STRING.2, %edi                         #77.2
..LN1543:
        xorl      %eax, %eax                                    #77.2
..LN1544:
        movl      52(%r15), %esi                                #77.2
..___tag_value__Z23print_position_ordi_basP3Pos.473:
..LN1545:
#       printf(const char *, ...)
        call      printf                                        #77.2
..___tag_value__Z23print_position_ordi_basP3Pos.474:
..LN1546:
                                # LOE rbx rbp r12 r13 r14 r15
..B8.9:                         # Preds ..B8.8
                                # Execution count [1.00e+00]
..L475:
                # optimization report
                # LOOP WAS COMPLETELY UNROLLED BY 6
                # %s was not vectorized: vector dependence prevents vectorization%s
                # VECTOR TRIP COUNT IS KNOWN CONSTANT
..LN1547:
	.loc    1  78  is_stmt 1
..LN1548:
	.loc    1  79  is_stmt 1
        movl      $.L_2__STRING.1, %edi                         #79.3
..LN1549:
        xorl      %eax, %eax                                    #79.3
..LN1550:
        movl      20(%r15), %esi                                #79.3
..___tag_value__Z23print_position_ordi_basP3Pos.476:
..LN1551:
#       printf(const char *, ...)
        call      printf                                        #79.3
..___tag_value__Z23print_position_ordi_basP3Pos.477:
..LN1552:
                                # LOE rbx rbp r12 r13 r14 r15
..B8.10:                        # Preds ..B8.9
                                # Execution count [1.00e+00]
..LN1553:
        movl      $.L_2__STRING.1, %edi                         #79.3
..LN1554:
        xorl      %eax, %eax                                    #79.3
..LN1555:
        movl      16(%r15), %esi                                #79.3
..___tag_value__Z23print_position_ordi_basP3Pos.478:
..LN1556:
#       printf(const char *, ...)
        call      printf                                        #79.3
..___tag_value__Z23print_position_ordi_basP3Pos.479:
..LN1557:
                                # LOE rbx rbp r12 r13 r14 r15
..B8.11:                        # Preds ..B8.10
                                # Execution count [1.00e+00]
..LN1558:
        movl      $.L_2__STRING.1, %edi                         #79.3
..LN1559:
        xorl      %eax, %eax                                    #79.3
..LN1560:
        movl      12(%r15), %esi                                #79.3
..___tag_value__Z23print_position_ordi_basP3Pos.480:
..LN1561:
#       printf(const char *, ...)
        call      printf                                        #79.3
..___tag_value__Z23print_position_ordi_basP3Pos.481:
..LN1562:
                                # LOE rbx rbp r12 r13 r14 r15
..B8.12:                        # Preds ..B8.11
                                # Execution count [1.00e+00]
..LN1563:
        movl      $.L_2__STRING.1, %edi                         #79.3
..LN1564:
        xorl      %eax, %eax                                    #79.3
..LN1565:
        movl      8(%r15), %esi                                 #79.3
..___tag_value__Z23print_position_ordi_basP3Pos.482:
..LN1566:
#       printf(const char *, ...)
        call      printf                                        #79.3
..___tag_value__Z23print_position_ordi_basP3Pos.483:
..LN1567:
                                # LOE rbx rbp r12 r13 r14 r15
..B8.13:                        # Preds ..B8.12
                                # Execution count [1.00e+00]
..LN1568:
        movl      $.L_2__STRING.1, %edi                         #79.3
..LN1569:
        xorl      %eax, %eax                                    #79.3
..LN1570:
        movl      4(%r15), %esi                                 #79.3
..___tag_value__Z23print_position_ordi_basP3Pos.484:
..LN1571:
#       printf(const char *, ...)
        call      printf                                        #79.3
..___tag_value__Z23print_position_ordi_basP3Pos.485:
..LN1572:
                                # LOE rbx rbp r12 r13 r14 r15
..B8.14:                        # Preds ..B8.13
                                # Execution count [1.00e+00]
..LN1573:
        movl      $.L_2__STRING.1, %edi                         #79.3
..LN1574:
        xorl      %eax, %eax                                    #79.3
..LN1575:
        movl      (%r15), %esi                                  #79.3
..___tag_value__Z23print_position_ordi_basP3Pos.486:
..LN1576:
#       printf(const char *, ...)
        call      printf                                        #79.3
..___tag_value__Z23print_position_ordi_basP3Pos.487:
..LN1577:
                                # LOE rbx rbp r12 r13 r14 r15
..B8.15:                        # Preds ..B8.14
                                # Execution count [1.00e+00]
..LN1578:
	.loc    1  81  is_stmt 1
        movl      48(%r15), %esi                                #81.2
..LN1579:
        movl      $.L_2__STRING.3, %edi                         #81.2
..LN1580:
        xorl      %eax, %eax                                    #81.2
	.cfi_restore 15
..LN1581:
	.loc    1  81  epilogue_begin  is_stmt 1
        popq      %r15                                          #81.2
	.cfi_def_cfa_offset 8
..LN1582:
#       printf(const char *, ...)
        jmp       printf                                        #81.2
        .align    16,0x90
..LN1583:
                                # LOE
..LN1584:
	.cfi_endproc
# mark_end;
	.type	_Z23print_position_ordi_basP3Pos,@function
	.size	_Z23print_position_ordi_basP3Pos,.-_Z23print_position_ordi_basP3Pos
..LN_Z23print_position_ordi_basP3Pos.1585:
.LN_Z23print_position_ordi_basP3Pos:
	.section .rodata.str1.4, "aMS",@progbits,1
	.space 1, 0x00 	# pad
	.align 4
il0_peep_printf_format_12:
	.long	757935405
	.long	757935405
	.long	757935405
	.long	757935405
	.long	757935405
	.long	757935405
	.word	11565
	.byte	0
	.data
# -- End  _Z23print_position_ordi_basP3Pos
	.text
.L_2__routine_start__Z24print_position_ordi_hautP3Pos_8:
# -- Begin  _Z24print_position_ordi_hautP3Pos
	.text
# mark_begin;
       .align    16,0x90
	.globl _Z24print_position_ordi_hautP3Pos
# --- print_position_ordi_haut(Position *)
_Z24print_position_ordi_hautP3Pos:
# parameter 1(pos): %rdi
..B9.1:                         # Preds ..B9.0
                                # Execution count [1.00e+00]
	.cfi_startproc
	.cfi_personality 0x3,__gxx_personality_v0
..___tag_value__Z24print_position_ordi_hautP3Pos.494:
..L495:
                                                        #84.45
..LN1586:
	.loc    1  84  is_stmt 1
        pushq     %r15                                          #84.45
	.cfi_def_cfa_offset 16
	.cfi_offset 15, -16
..LN1587:
	.loc    1  84  prologue_end  is_stmt 1
        movq      %rdi, %r15                                    #84.45
..LN1588:
	.loc    1  85  is_stmt 1
        movl      $il0_peep_printf_format_13, %edi              #85.2
..LN1589:
        call      puts                                          #85.2
..LN1590:
                                # LOE rbx rbp r12 r13 r14 r15
..B9.2:                         # Preds ..B9.1
                                # Execution count [1.00e+00]
..L499:
                # optimization report
                # LOOP WAS COMPLETELY UNROLLED BY 6
                # %s was not vectorized: vector dependence prevents vectorization%s
                # VECTOR TRIP COUNT IS KNOWN CONSTANT
..LN1591:
	.loc    1  86  is_stmt 1
..LN1592:
	.loc    1  87  is_stmt 1
        movl      $.L_2__STRING.1, %edi                         #87.3
..LN1593:
        xorl      %eax, %eax                                    #87.3
..LN1594:
        movl      (%r15), %esi                                  #87.3
..___tag_value__Z24print_position_ordi_hautP3Pos.500:
..LN1595:
#       printf(const char *, ...)
        call      printf                                        #87.3
..___tag_value__Z24print_position_ordi_hautP3Pos.501:
..LN1596:
                                # LOE rbx rbp r12 r13 r14 r15
..B9.3:                         # Preds ..B9.2
                                # Execution count [1.00e+00]
..LN1597:
        movl      $.L_2__STRING.1, %edi                         #87.3
..LN1598:
        xorl      %eax, %eax                                    #87.3
..LN1599:
        movl      4(%r15), %esi                                 #87.3
..___tag_value__Z24print_position_ordi_hautP3Pos.502:
..LN1600:
#       printf(const char *, ...)
        call      printf                                        #87.3
..___tag_value__Z24print_position_ordi_hautP3Pos.503:
..LN1601:
                                # LOE rbx rbp r12 r13 r14 r15
..B9.4:                         # Preds ..B9.3
                                # Execution count [1.00e+00]
..LN1602:
        movl      $.L_2__STRING.1, %edi                         #87.3
..LN1603:
        xorl      %eax, %eax                                    #87.3
..LN1604:
        movl      8(%r15), %esi                                 #87.3
..___tag_value__Z24print_position_ordi_hautP3Pos.504:
..LN1605:
#       printf(const char *, ...)
        call      printf                                        #87.3
..___tag_value__Z24print_position_ordi_hautP3Pos.505:
..LN1606:
                                # LOE rbx rbp r12 r13 r14 r15
..B9.5:                         # Preds ..B9.4
                                # Execution count [1.00e+00]
..LN1607:
        movl      $.L_2__STRING.1, %edi                         #87.3
..LN1608:
        xorl      %eax, %eax                                    #87.3
..LN1609:
        movl      12(%r15), %esi                                #87.3
..___tag_value__Z24print_position_ordi_hautP3Pos.506:
..LN1610:
#       printf(const char *, ...)
        call      printf                                        #87.3
..___tag_value__Z24print_position_ordi_hautP3Pos.507:
..LN1611:
                                # LOE rbx rbp r12 r13 r14 r15
..B9.6:                         # Preds ..B9.5
                                # Execution count [1.00e+00]
..LN1612:
        movl      $.L_2__STRING.1, %edi                         #87.3
..LN1613:
        xorl      %eax, %eax                                    #87.3
..LN1614:
        movl      16(%r15), %esi                                #87.3
..___tag_value__Z24print_position_ordi_hautP3Pos.508:
..LN1615:
#       printf(const char *, ...)
        call      printf                                        #87.3
..___tag_value__Z24print_position_ordi_hautP3Pos.509:
..LN1616:
                                # LOE rbx rbp r12 r13 r14 r15
..B9.7:                         # Preds ..B9.6
                                # Execution count [1.00e+00]
..LN1617:
        movl      $.L_2__STRING.1, %edi                         #87.3
..LN1618:
        xorl      %eax, %eax                                    #87.3
..LN1619:
        movl      20(%r15), %esi                                #87.3
..___tag_value__Z24print_position_ordi_hautP3Pos.510:
..LN1620:
#       printf(const char *, ...)
        call      printf                                        #87.3
..___tag_value__Z24print_position_ordi_hautP3Pos.511:
..LN1621:
                                # LOE rbx rbp r12 r13 r14 r15
..B9.8:                         # Preds ..B9.7
                                # Execution count [1.00e+00]
..LN1622:
	.loc    1  89  is_stmt 1
        movl      $.L_2__STRING.2, %edi                         #89.2
..LN1623:
        xorl      %eax, %eax                                    #89.2
..LN1624:
        movl      48(%r15), %esi                                #89.2
..___tag_value__Z24print_position_ordi_hautP3Pos.512:
..LN1625:
#       printf(const char *, ...)
        call      printf                                        #89.2
..___tag_value__Z24print_position_ordi_hautP3Pos.513:
..LN1626:
                                # LOE rbx rbp r12 r13 r14 r15
..B9.9:                         # Preds ..B9.8
                                # Execution count [1.00e+00]
..L514:
                # optimization report
                # LOOP WAS COMPLETELY UNROLLED BY 6
                # %s was not vectorized: vector dependence prevents vectorization%s
                # VECTOR TRIP COUNT IS KNOWN CONSTANT
..LN1627:
	.loc    1  90  is_stmt 1
..LN1628:
	.loc    1  91  is_stmt 1
        movl      $.L_2__STRING.1, %edi                         #91.3
..LN1629:
        xorl      %eax, %eax                                    #91.3
..LN1630:
        movl      24(%r15), %esi                                #91.3
..___tag_value__Z24print_position_ordi_hautP3Pos.515:
..LN1631:
#       printf(const char *, ...)
        call      printf                                        #91.3
..___tag_value__Z24print_position_ordi_hautP3Pos.516:
..LN1632:
                                # LOE rbx rbp r12 r13 r14 r15
..B9.10:                        # Preds ..B9.9
                                # Execution count [1.00e+00]
..LN1633:
        movl      $.L_2__STRING.1, %edi                         #91.3
..LN1634:
        xorl      %eax, %eax                                    #91.3
..LN1635:
        movl      28(%r15), %esi                                #91.3
..___tag_value__Z24print_position_ordi_hautP3Pos.517:
..LN1636:
#       printf(const char *, ...)
        call      printf                                        #91.3
..___tag_value__Z24print_position_ordi_hautP3Pos.518:
..LN1637:
                                # LOE rbx rbp r12 r13 r14 r15
..B9.11:                        # Preds ..B9.10
                                # Execution count [1.00e+00]
..LN1638:
        movl      $.L_2__STRING.1, %edi                         #91.3
..LN1639:
        xorl      %eax, %eax                                    #91.3
..LN1640:
        movl      32(%r15), %esi                                #91.3
..___tag_value__Z24print_position_ordi_hautP3Pos.519:
..LN1641:
#       printf(const char *, ...)
        call      printf                                        #91.3
..___tag_value__Z24print_position_ordi_hautP3Pos.520:
..LN1642:
                                # LOE rbx rbp r12 r13 r14 r15
..B9.12:                        # Preds ..B9.11
                                # Execution count [1.00e+00]
..LN1643:
        movl      $.L_2__STRING.1, %edi                         #91.3
..LN1644:
        xorl      %eax, %eax                                    #91.3
..LN1645:
        movl      36(%r15), %esi                                #91.3
..___tag_value__Z24print_position_ordi_hautP3Pos.521:
..LN1646:
#       printf(const char *, ...)
        call      printf                                        #91.3
..___tag_value__Z24print_position_ordi_hautP3Pos.522:
..LN1647:
                                # LOE rbx rbp r12 r13 r14 r15
..B9.13:                        # Preds ..B9.12
                                # Execution count [1.00e+00]
..LN1648:
        movl      $.L_2__STRING.1, %edi                         #91.3
..LN1649:
        xorl      %eax, %eax                                    #91.3
..LN1650:
        movl      40(%r15), %esi                                #91.3
..___tag_value__Z24print_position_ordi_hautP3Pos.523:
..LN1651:
#       printf(const char *, ...)
        call      printf                                        #91.3
..___tag_value__Z24print_position_ordi_hautP3Pos.524:
..LN1652:
                                # LOE rbx rbp r12 r13 r14 r15
..B9.14:                        # Preds ..B9.13
                                # Execution count [1.00e+00]
..LN1653:
        movl      $.L_2__STRING.1, %edi                         #91.3
..LN1654:
        xorl      %eax, %eax                                    #91.3
..LN1655:
        movl      44(%r15), %esi                                #91.3
..___tag_value__Z24print_position_ordi_hautP3Pos.525:
..LN1656:
#       printf(const char *, ...)
        call      printf                                        #91.3
..___tag_value__Z24print_position_ordi_hautP3Pos.526:
..LN1657:
                                # LOE rbx rbp r12 r13 r14 r15
..B9.15:                        # Preds ..B9.14
                                # Execution count [1.00e+00]
..LN1658:
	.loc    1  93  is_stmt 1
        movl      52(%r15), %esi                                #93.2
..LN1659:
        movl      $.L_2__STRING.3, %edi                         #93.2
..LN1660:
        xorl      %eax, %eax                                    #93.2
	.cfi_restore 15
..LN1661:
	.loc    1  93  epilogue_begin  is_stmt 1
        popq      %r15                                          #93.2
	.cfi_def_cfa_offset 8
..LN1662:
#       printf(const char *, ...)
        jmp       printf                                        #93.2
        .align    16,0x90
..LN1663:
                                # LOE
..LN1664:
	.cfi_endproc
# mark_end;
	.type	_Z24print_position_ordi_hautP3Pos,@function
	.size	_Z24print_position_ordi_hautP3Pos,.-_Z24print_position_ordi_hautP3Pos
..LN_Z24print_position_ordi_hautP3Pos.1665:
.LN_Z24print_position_ordi_hautP3Pos:
	.section .rodata.str1.4, "aMS",@progbits,1
	.space 1, 0x00 	# pad
	.align 4
il0_peep_printf_format_13:
	.long	757935405
	.long	757935405
	.long	757935405
	.long	757935405
	.long	757935405
	.long	757935405
	.word	11565
	.byte	0
	.data
# -- End  _Z24print_position_ordi_hautP3Pos
	.text
.L_2__routine_start__Z10est_affameP3Posi_9:
# -- Begin  _Z10est_affameP3Posi
	.text
# mark_begin;
       .align    16,0x90
	.globl _Z10est_affameP3Posi
# --- est_affame(Position *, int)
_Z10est_affameP3Posi:
# parameter 1(pos): %rdi
# parameter 2(joueur): %esi
..B10.1:                        # Preds ..B10.0
                                # Execution count [1.00e+00]
..L536:
                # optimization report
                # LOOP WAS COMPLETELY UNROLLED BY 6
                # %s was not vectorized: vectorization possible but seems inefficient. Use vector always directive or -vec-threshold0 to override 
                # VECTORIZATION SPEEDUP COEFFECIENT 0.383057
                # VECTOR TRIP COUNT IS KNOWN CONSTANT
                # VECTOR LENGTH 4
                # NORMALIZED VECTORIZATION OVERHEAD 5.000000
..LN1666:
	.loc    1  99  is_stmt 1
	.cfi_startproc
	.cfi_personality 0x3,__gxx_personality_v0
..___tag_value__Z10est_affameP3Posi.533:
..L534:
                                                        #96.48
..LN1667:
	.loc    1  96  is_stmt 1
        movslq    %esi, %rsi                                    #96.48
..LN1668:
	.loc    1  101  prologue_end  is_stmt 1
        lea       (%rsi,%rsi,2), %rax                           #101.12
..LN1669:
        movl      (%rdi,%rax,8), %edx                           #101.12
..LN1670:
        addl      4(%rdi,%rax,8), %edx                          #101.3
..LN1671:
        addl      8(%rdi,%rax,8), %edx                          #101.3
..LN1672:
        addl      12(%rdi,%rax,8), %edx                         #101.3
..LN1673:
        addl      16(%rdi,%rax,8), %edx                         #101.3
..LN1674:
        addl      20(%rdi,%rax,8), %edx                         #101.3
..LN1675:
	.loc    1  103  is_stmt 1
        xorl      %eax, %eax                                    #103.10
..LN1676:
        cmpl      $1, %edx                                      #103.10
..LN1677:
        setb      %al                                           #103.10
..LN1678:
	.loc    1  103  epilogue_begin  is_stmt 1
        ret                                                     #103.10
        .align    16,0x90
..LN1679:
                                # LOE
..LN1680:
	.cfi_endproc
# mark_end;
	.type	_Z10est_affameP3Posi,@function
	.size	_Z10est_affameP3Posi,.-_Z10est_affameP3Posi
..LN_Z10est_affameP3Posi.1681:
.LN_Z10est_affameP3Posi:
	.data
# -- End  _Z10est_affameP3Posi
	.text
.L_2__routine_start__Z6copierP3PosS0__10:
# -- Begin  _Z6copierP3PosS0_
	.text
# mark_begin;
       .align    16,0x90
	.globl _Z6copierP3PosS0_
# --- copier(Position *, Position *)
_Z6copierP3PosS0_:
# parameter 1(newPos): %rdi
# parameter 2(pos): %rsi
..B11.1:                        # Preds ..B11.0
                                # Execution count [1.00e+00]
..L545:
                # optimization report
                # LOOP WAS COMPLETELY UNROLLED BY 6
                # %s was not vectorized: vector dependence prevents vectorization%s
                # VECTOR TRIP COUNT IS KNOWN CONSTANT
..LN1682:
	.loc    1  108  is_stmt 1
	.cfi_startproc
	.cfi_personality 0x3,__gxx_personality_v0
..___tag_value__Z6copierP3PosS0_.542:
..L543:
                                                        #107.45
..LN1683:
	.loc    1  107  prologue_end  is_stmt 1
..LN1684:
	.loc    1  109  is_stmt 1
        movl      (%rsi), %eax                                  #109.24
..LN1685:
        movl      %eax, (%rdi)                                  #109.3
..LN1686:
	.loc    1  110  is_stmt 1
        movl      24(%rsi), %edx                                #110.24
..LN1687:
        movl      %edx, 24(%rdi)                                #110.3
..LN1688:
	.loc    1  109  is_stmt 1
        movl      4(%rsi), %ecx                                 #109.24
..LN1689:
        movl      %ecx, 4(%rdi)                                 #109.3
..LN1690:
	.loc    1  110  is_stmt 1
        movl      28(%rsi), %r8d                                #110.24
..LN1691:
        movl      %r8d, 28(%rdi)                                #110.3
..LN1692:
	.loc    1  109  is_stmt 1
        movl      8(%rsi), %r9d                                 #109.24
..LN1693:
        movl      %r9d, 8(%rdi)                                 #109.3
..LN1694:
	.loc    1  110  is_stmt 1
        movl      32(%rsi), %r10d                               #110.24
..LN1695:
        movl      %r10d, 32(%rdi)                               #110.3
..LN1696:
	.loc    1  109  is_stmt 1
        movl      12(%rsi), %r11d                               #109.24
..LN1697:
        movl      %r11d, 12(%rdi)                               #109.3
..LN1698:
	.loc    1  110  is_stmt 1
        movl      36(%rsi), %eax                                #110.24
..LN1699:
        movl      %eax, 36(%rdi)                                #110.3
..LN1700:
	.loc    1  109  is_stmt 1
        movl      16(%rsi), %edx                                #109.24
..LN1701:
        movl      %edx, 16(%rdi)                                #109.3
..LN1702:
	.loc    1  110  is_stmt 1
        movl      40(%rsi), %ecx                                #110.24
..LN1703:
        movl      %ecx, 40(%rdi)                                #110.3
..LN1704:
	.loc    1  109  is_stmt 1
        movl      20(%rsi), %r8d                                #109.24
..LN1705:
	.loc    1  112  is_stmt 1
        movl      48(%rsi), %r10d                               #112.24
..LN1706:
	.loc    1  109  is_stmt 1
        movl      %r8d, 20(%rdi)                                #109.3
..LN1707:
	.loc    1  112  is_stmt 1
        movl      %r10d, 48(%rdi)                               #112.2
..LN1708:
	.loc    1  110  is_stmt 1
        movl      44(%rsi), %r9d                                #110.24
..LN1709:
	.loc    1  113  is_stmt 1
        movl      52(%rsi), %esi                                #113.24
..LN1710:
	.loc    1  110  is_stmt 1
        movl      %r9d, 44(%rdi)                                #110.3
..LN1711:
	.loc    1  113  is_stmt 1
        movl      %esi, 52(%rdi)                                #113.2
..LN1712:
	.loc    1  114  epilogue_begin  is_stmt 1
        ret                                                     #114.1
        .align    16,0x90
..LN1713:
                                # LOE
..LN1714:
	.cfi_endproc
# mark_end;
	.type	_Z6copierP3PosS0_,@function
	.size	_Z6copierP3PosS0_,.-_Z6copierP3PosS0_
..LN_Z6copierP3PosS0_.1715:
.LN_Z6copierP3PosS0_:
	.data
# -- End  _Z6copierP3PosS0_
	.text
.L_2__routine_start__Z8test_finP3Pos_11:
# -- Begin  _Z8test_finP3Pos
	.text
# mark_begin;
       .align    16,0x90
	.globl _Z8test_finP3Pos
# --- test_fin(Position *)
_Z8test_finP3Pos:
# parameter 1(pos): %rdi
..B12.1:                        # Preds ..B12.0
                                # Execution count [1.00e+00]
	.cfi_startproc
	.cfi_personality 0x3,__gxx_personality_v0
..___tag_value__Z8test_finP3Pos.550:
..L551:
                                                        #182.28
..LN1716:
	.loc    1  182  prologue_end  is_stmt 1
..LN1717:
	.loc    1  183  is_stmt 1
        movl      48(%rdi), %edx                                #183.6
..LN1718:
        movl      52(%rdi), %ecx                                #183.27
..LN1719:
        lea       (%rdx,%rcx), %eax                             #183.27
..LN1720:
        cmpl      $24, %eax                                     #183.48
..LN1721:
        jle       ..B12.8       # Prob 28%                      #183.48
..LN1722:
                                # LOE rbx rbp r12 r13 r14 r15 edx ecx
..B12.2:                        # Preds ..B12.1
                                # Execution count [7.20e-01]
..LN1723:
	.loc    1  184  is_stmt 1
        movl      %edx, %eax                                    #184.7
..LN1724:
        negl      %eax                                          #184.7
..LN1725:
        addl      $48, %eax                                     #184.7
..LN1726:
        subl      %ecx, %eax                                    #184.7
..LN1727:
        cmpl      $6, %eax                                      #184.51
..LN1728:
        jle       ..B12.5       # Prob 28%                      #184.51
..LN1729:
                                # LOE rbx rbp r12 r13 r14 r15 edx ecx
..B12.3:                        # Preds ..B12.2
                                # Execution count [5.18e-01]
..LN1730:
	.loc    1  187  is_stmt 1
        cmpl      $25, %edx                                     #187.29
..LN1731:
        jge       ..B12.5       # Prob 28%                      #187.29
..LN1732:
                                # LOE rbx rbp r12 r13 r14 r15 ecx
..B12.4:                        # Preds ..B12.3
                                # Execution count [3.73e-01]
..LN1733:
	.loc    1  188  is_stmt 1
        cmpl      $25, %ecx                                     #188.29
..LN1734:
        jl        ..B12.8       # Prob 50%                      #188.29
..LN1735:
                                # LOE rbx rbp r12 r13 r14 r15
..B12.5:                        # Preds ..B12.2 ..B12.3 ..B12.4
                                # Execution count [1.87e-01]
..LN1736:
        movl      $1, %eax                                      #188.40
..LN1737:
	.loc    1  188  epilogue_begin  is_stmt 1
        ret                                                     #188.40
..LN1738:
                                # LOE
..B12.8:                        # Preds ..B12.4 ..B12.1
                                # Execution count [4.67e-01]
..LN1739:
	.loc    1  190  is_stmt 1
        xorl      %eax, %eax                                    #190.9
..LN1740:
	.loc    1  190  epilogue_begin  is_stmt 1
        ret                                                     #190.9
        .align    16,0x90
..LN1741:
                                # LOE
..LN1742:
	.cfi_endproc
# mark_end;
	.type	_Z8test_finP3Pos,@function
	.size	_Z8test_finP3Pos,.-_Z8test_finP3Pos
..LN_Z8test_finP3Pos.1743:
.LN_Z8test_finP3Pos:
	.data
# -- End  _Z8test_finP3Pos
	.text
.L_2__routine_start__Z15print_eval_coupP5ECoupi_12:
# -- Begin  _Z15print_eval_coupP5ECoupi
	.text
# mark_begin;
       .align    16,0x90
	.globl _Z15print_eval_coupP5ECoupi
# --- print_eval_coup(EvalCoup *, int)
_Z15print_eval_coupP5ECoupi:
# parameter 1(ec): %rdi
# parameter 2(nb): %esi
..B13.1:                        # Preds ..B13.0
                                # Execution count [1.00e+00]
	.cfi_startproc
	.cfi_personality 0x3,__gxx_personality_v0
..___tag_value__Z15print_eval_coupP5ECoupi.558:
..L559:
                                                        #204.43
..LN1744:
	.loc    1  204  is_stmt 1
        subq      $24, %rsp                                     #204.43
	.cfi_def_cfa_offset 32
..LN1745:
	.loc    1  205  prologue_end  is_stmt 1
        xorl      %eax, %eax                                    #205.11
..LN1746:
	.loc    1  204  is_stmt 1
        movslq    %esi, %rsi                                    #204.43
..LN1747:
	.loc    1  205  is_stmt 1
        testq     %rsi, %rsi                                    #205.16
..LN1748:
        jle       ..B13.10      # Prob 10%                      #205.16
..LN1749:
                                # LOE rax rbx rbp rsi rdi r12 r13 r14 r15
..B13.2:                        # Preds ..B13.1
                                # Execution count [9.00e-01]
..LN1750:
        movq      %r12, 16(%rsp)                                #[spill]
	.cfi_offset 12, -16
..LN1751:
        movq      %rax, %r12                                    #
..LN1752:
        movq      %r13, 8(%rsp)                                 #[spill]
	.cfi_offset 13, -24
..LN1753:
        movq      %rsi, %r13                                    #
..LN1754:
        movq      %r14, (%rsp)                                  #[spill]
	.cfi_offset 14, -32
..LN1755:
        movq      %rdi, %r14                                    #
..LN1756:
                                # LOE rbx rbp r12 r13 r14 r15
..B13.3:                        # Preds ..B13.8 ..B13.2
                                # Execution count [5.00e+00]
..L568:
                # optimization report
                # %s was not vectorized: vector dependence prevents vectorization%s
                # VECTOR TRIP COUNT IS ESTIMATED CONSTANT
..LN1757:
..LN1758:
	.loc    1  206  is_stmt 1
        movl      $_ZSt4cout, %edi                              #206.13
..LN1759:
        movl      $.L_2__STRING.4, %esi                         #206.13
..___tag_value__Z15print_eval_coupP5ECoupi.569:
..LN1760:
#       std::operator<<<std::char_traits<char>>(std::basic_ostream<char, std::char_traits<char>> &, const char *)
        call      _ZStlsISt11char_traitsIcEERSt13basic_ostreamIcT_ES5_PKc #206.13
..___tag_value__Z15print_eval_coupP5ECoupi.570:
..LN1761:
                                # LOE rax rbx rbp r12 r13 r14 r15
..B13.4:                        # Preds ..B13.3
                                # Execution count [5.00e+00]
..LN1762:
        movq      %rax, %rdi                                    #206.25
..LN1763:
        movl      24(%r14,%r12,4), %esi                         #206.25
..___tag_value__Z15print_eval_coupP5ECoupi.571:
..LN1764:
#       std::basic_ostream<char, std::char_traits<char>>::operator<<(std::basic_ostream<char, std::char_traits<char>> *, int)
        call      _ZNSolsEi                                     #206.25
..___tag_value__Z15print_eval_coupP5ECoupi.572:
..LN1765:
                                # LOE rax rbx rbp r12 r13 r14 r15
..B13.5:                        # Preds ..B13.4
                                # Execution count [5.00e+00]
..LN1766:
        movq      %rax, %rdi                                    #206.41
..LN1767:
        movl      $.L_2__STRING.5, %esi                         #206.41
..___tag_value__Z15print_eval_coupP5ECoupi.573:
..LN1768:
#       std::operator<<<std::char_traits<char>>(std::basic_ostream<char, std::char_traits<char>> &, const char *)
        call      _ZStlsISt11char_traitsIcEERSt13basic_ostreamIcT_ES5_PKc #206.41
..___tag_value__Z15print_eval_coupP5ECoupi.574:
..LN1769:
                                # LOE rax rbx rbp r12 r13 r14 r15
..B13.6:                        # Preds ..B13.5
                                # Execution count [5.00e+00]
..LN1770:
        movq      %rax, %rdi                                    #206.54
..LN1771:
        movl      (%r14,%r12,4), %esi                           #206.54
..___tag_value__Z15print_eval_coupP5ECoupi.575:
..LN1772:
#       std::basic_ostream<char, std::char_traits<char>>::operator<<(std::basic_ostream<char, std::char_traits<char>> *, int)
        call      _ZNSolsEi                                     #206.54
..___tag_value__Z15print_eval_coupP5ECoupi.576:
..LN1773:
                                # LOE rax rbx rbp r12 r13 r14 r15
..B13.7:                        # Preds ..B13.6
                                # Execution count [5.00e+00]
..LN1774:
        movq      %rax, %rdi                                    #206.69
..LN1775:
        movl      $_ZSt4endlIcSt11char_traitsIcEERSt13basic_ostreamIT_T0_ES6_, %esi #206.69
..___tag_value__Z15print_eval_coupP5ECoupi.577:
..LN1776:
#       std::basic_ostream<char, std::char_traits<char>>::operator<<(std::basic_ostream<char, std::char_traits<char>> *, std::basic_ostream<char, std::char_traits<char>>::__ostream_type &(*)(std::basic_ostream<char, std::char_traits<char>>::__ostream_type &))
        call      _ZNSolsEPFRSoS_E                              #206.69
..___tag_value__Z15print_eval_coupP5ECoupi.578:
..LN1777:
                                # LOE rbx rbp r12 r13 r14 r15
..B13.8:                        # Preds ..B13.7
                                # Execution count [5.00e+00]
..LN1778:
	.loc    1  205  is_stmt 1
        incq      %r12                                          #205.19
..LN1779:
        cmpq      %r13, %r12                                    #205.16
..LN1780:
        jl        ..B13.3       # Prob 82%                      #205.16
..LN1781:
                                # LOE rbx rbp r12 r13 r14 r15
..B13.9:                        # Preds ..B13.8
                                # Execution count [9.00e-01]
..LN1782:
        movq      16(%rsp), %r12                                #[spill]
	.cfi_restore 12
..LN1783:
        movq      8(%rsp), %r13                                 #[spill]
	.cfi_restore 13
..LN1784:
        movq      (%rsp), %r14                                  #[spill]
	.cfi_restore 14
..LN1785:
                                # LOE rbx rbp r12 r13 r14 r15
..B13.10:                       # Preds ..B13.9 ..B13.1
                                # Execution count [1.00e+00]
..LN1786:
	.loc    1  208  epilogue_begin  is_stmt 1
        addq      $24, %rsp                                     #208.1
	.cfi_def_cfa_offset 8
..LN1787:
        ret                                                     #208.1
        .align    16,0x90
..LN1788:
                                # LOE
..LN1789:
	.cfi_endproc
# mark_end;
	.type	_Z15print_eval_coupP5ECoupi,@function
	.size	_Z15print_eval_coupP5ECoupi,.-_Z15print_eval_coupP5ECoupi
..LN_Z15print_eval_coupP5ECoupi.1790:
.LN_Z15print_eval_coupP5ECoupi:
	.data
# -- End  _Z15print_eval_coupP5ECoupi
	.section .text._ZNSt11char_traitsIcE6lengthEPKc, "xaG",@progbits,_ZNSt11char_traitsIcE6lengthEPKc,comdat
..TXTST1:
.L_2__routine_start__ZNSt11char_traitsIcE6lengthEPKc_13:
# -- Begin  _ZNSt11char_traitsIcE6lengthEPKc
	.section .text._ZNSt11char_traitsIcE6lengthEPKc, "xaG",@progbits,_ZNSt11char_traitsIcE6lengthEPKc,comdat
# mark_begin;
       .align    16,0x90
	.weak _ZNSt11char_traitsIcE6lengthEPKc
# --- std::char_traits<char>::length(const std::char_traits<char>::char_type *)
_ZNSt11char_traitsIcE6lengthEPKc:
# parameter 1(__s): %rdi
..B14.1:                        # Preds ..B14.0
                                # Execution count [1.00e+00]
	.cfi_startproc
	.cfi_personality 0x3,__gxx_personality_v0
..___tag_value__ZNSt11char_traitsIcE6lengthEPKc.589:
..L590:
                                                        #315.7
..LN1791:
	.file   17 "/usr/include/c++/7/bits/char_traits.h"
	.loc    17  315  is_stmt 1
        pushq     %rsi                                          #315.7
	.cfi_def_cfa_offset 16
..LN1792:
	.loc    17  320  prologue_end  is_stmt 1
        movq      %rdi, %rdx                                    #320.9
..LN1793:
        movq      %rdx, %rcx                                    #320.9
..LN1794:
        andq      $-16, %rdx                                    #320.9
..LN1795:
        pxor      %xmm0, %xmm0                                  #320.9
..LN1796:
        pcmpeqb   (%rdx), %xmm0                                 #320.9
..LN1797:
        pmovmskb  %xmm0, %eax                                   #320.9
..LN1798:
        andl      $15, %ecx                                     #320.9
..LN1799:
        shrl      %cl, %eax                                     #320.9
..LN1800:
        bsf       %eax, %eax                                    #320.9
..LN1801:
        jne       ..L593        # Prob 60%                      #320.9
..LN1802:
        movq      %rdx, %rax                                    #320.9
..LN1803:
        addq      %rcx, %rdx                                    #320.9
..LN1804:
        call      *__intel_sse2_strlen@GOTPCREL(%rip)           #320.9
..L593:                                                         #
..LN1805:
                                # LOE rax rbx rbp r12 r13 r14 r15
..B14.4:                        # Preds ..B14.1
                                # Execution count [1.00e+00]
..LN1806:
	.loc    17  320  epilogue_begin  is_stmt 1
        popq      %rcx                                          #320.9
	.cfi_def_cfa_offset 8
..LN1807:
        ret                                                     #320.9
        .align    16,0x90
..LN1808:
                                # LOE
..LN1809:
	.cfi_endproc
# mark_end;
	.type	_ZNSt11char_traitsIcE6lengthEPKc,@function
	.size	_ZNSt11char_traitsIcE6lengthEPKc,.-_ZNSt11char_traitsIcE6lengthEPKc
..LN_ZNSt11char_traitsIcE6lengthEPKc.1810:
.LN_ZNSt11char_traitsIcE6lengthEPKc:
	.data
	.file   18 "/usr/include/c++/7/bits/postypes.h"
	.file   19 "/usr/include/bits/types/mbstate_t.h"
	.file   20 "/usr/include/bits/types/__mbstate_t.h"
# -- End  _ZNSt11char_traitsIcE6lengthEPKc
	.text
.L_2__routine_start__Z18calculer_eval_coupP5ECoupP3Posiiii_14:
# -- Begin  _Z18calculer_eval_coupP5ECoupP3Posiiii
	.text
# mark_begin;
       .align    16,0x90
	.globl _Z18calculer_eval_coupP5ECoupP3Posiiii
# --- calculer_eval_coup(EvalCoup *, Position *, int, int, int, int)
_Z18calculer_eval_coupP5ECoupP3Posiiii:
# parameter 1(ec): %rdi
# parameter 2(pos): %rsi
# parameter 3(joueur): %edx
# parameter 4(alpha): %ecx
# parameter 5(beta): %r8d
# parameter 6(pmax): %r9d
..B15.1:                        # Preds ..B15.0
                                # Execution count [1.00e+00]
	.cfi_startproc
	.cfi_personality 0x3,__gxx_personality_v0
..___tag_value__Z18calculer_eval_coupP5ECoupP3Posiiii.599:
..L600:
                                                        #211.118
..LN1811:
	.loc    1  211  is_stmt 1
        pushq     %r12                                          #211.118
	.cfi_def_cfa_offset 16
	.cfi_offset 12, -16
..LN1812:
        pushq     %r13                                          #211.118
	.cfi_def_cfa_offset 24
	.cfi_offset 13, -24
..LN1813:
        pushq     %r14                                          #211.118
	.cfi_def_cfa_offset 32
	.cfi_offset 14, -32
..LN1814:
        pushq     %r15                                          #211.118
	.cfi_def_cfa_offset 40
	.cfi_offset 15, -40
..LN1815:
        pushq     %rbx                                          #211.118
	.cfi_def_cfa_offset 48
	.cfi_offset 3, -48
..LN1816:
        pushq     %rbp                                          #211.118
	.cfi_def_cfa_offset 56
	.cfi_offset 6, -56
..LN1817:
        subq      $72, %rsp                                     #211.118
	.cfi_def_cfa_offset 128
..LN1818:
        movq      %rsi, %r10                                    #211.118
..LN1819:
	.loc    1  212  prologue_end  is_stmt 1
        xorl      %esi, %esi                                    #212.9
..LN1820:
	.loc    1  214  is_stmt 1
        xorl      %eax, %eax                                    #214.11
..LN1821:
	.loc    1  216  is_stmt 1
        decl      %r9d                                          #216.65
..LN1822:
        movl      %eax, %r14d                                   #216.65
..LN1823:
        movl      %ecx, 64(%rsp)                                #216.65[spill]
..LN1824:
        movl      %edx, %r13d                                   #216.65
..LN1825:
        movl      %r8d, 56(%rsp)                                #216.65[spill]
..LN1826:
        movq      %rsi, %r12                                    #216.65
..LN1827:
        movq      %rdi, %rbp                                    #216.65
..LN1828:
        movl      %r9d, %ebx                                    #216.65
..LN1829:
        movq      %r10, %r15                                    #216.65
..LN1830:
                                # LOE rbp r12 r15 ebx r13d r14d
..B15.2:                        # Preds ..B15.6 ..B15.1
                                # Execution count [6.00e+00]
..L617:
                # optimization report
                # %s was not vectorized: vector dependence prevents vectorization%s
                # VECTOR TRIP COUNT IS KNOWN CONSTANT
..LN1831:
	.loc    1  214  is_stmt 1
..LN1832:
	.loc    1  215  is_stmt 1
        movq      %r15, %rsi                                    #215.7
..LN1833:
        lea       (%rsp), %rdi                                  #215.7
..LN1834:
        movl      %r13d, %edx                                   #215.7
..LN1835:
        movl      %r14d, %ecx                                   #215.7
..___tag_value__Z18calculer_eval_coupP5ECoupP3Posiiii.618:
..LN1836:
#       jouer_coup(Position *, Position *, int, int)
        call      _Z10jouer_coupP3PosS0_ii                      #215.7
..___tag_value__Z18calculer_eval_coupP5ECoupP3Posiiii.619:
..LN1837:
                                # LOE rbp r12 r15 eax ebx r13d r14d
..B15.3:                        # Preds ..B15.2
                                # Execution count [6.00e+00]
..LN1838:
        testl     %eax, %eax                                    #215.7
..LN1839:
        je        ..B15.6       # Prob 78%                      #215.7
..LN1840:
                                # LOE rbp r12 r15 ebx r13d r14d
..B15.4:                        # Preds ..B15.3
                                # Execution count [1.32e+00]
..LN1841:
	.loc    1  216  is_stmt 1
        xorl      %esi, %esi                                    #216.18
..LN1842:
        cmpl      $1, %r13d                                     #216.18
..LN1843:
        movl      %ebx, %r8d                                    #216.18
..LN1844:
        lea       (%rsp), %rdi                                  #216.18
..LN1845:
        setb      %sil                                          #216.18
..LN1846:
        movl      64(%rdi), %edx                                #216.18[spill]
..LN1847:
        movl      56(%rdi), %ecx                                #216.18[spill]
..___tag_value__Z18calculer_eval_coupP5ECoupP3Posiiii.621:
..LN1848:
#       valeur_minimax(Position *, int, int, int, int)
        call      _Z14valeur_minimaxP3Posiiii                   #216.18
..___tag_value__Z18calculer_eval_coupP5ECoupP3Posiiii.622:
..LN1849:
                                # LOE rbp r12 r15 eax ebx r13d r14d
..B15.5:                        # Preds ..B15.4
                                # Execution count [1.32e+00]
..LN1850:
        movl      %eax, (%rbp,%r12,4)                           #216.4
..LN1851:
	.loc    1  217  is_stmt 1
        movl      %r14d, 24(%rbp,%r12,4)                        #217.4
..LN1852:
	.loc    1  218  is_stmt 1
        incq      %r12                                          #218.4
..LN1853:
                                # LOE rbp r12 r15 ebx r13d r14d
..B15.6:                        # Preds ..B15.5 ..B15.3
                                # Execution count [6.00e+00]
..LN1854:
	.loc    1  214  is_stmt 1
        incl      %r14d                                         #214.18
..LN1855:
        cmpl      $6, %r14d                                     #214.16
..LN1856:
        jl        ..B15.2       # Prob 83%                      #214.16
..LN1857:
                                # LOE rbp r12 r15 ebx r13d r14d
..B15.7:                        # Preds ..B15.6
                                # Execution count [1.00e+00]
..LN1858:
        movq      %r12, %rsi                                    #
..LN1859:
	.loc    1  221  is_stmt 1
        movl      %esi, %eax                                    #221.9
..LN1860:
	.loc    1  221  epilogue_begin  is_stmt 1
        addq      $72, %rsp                                     #221.9
	.cfi_def_cfa_offset 56
	.cfi_restore 6
..LN1861:
        popq      %rbp                                          #221.9
	.cfi_def_cfa_offset 48
	.cfi_restore 3
..LN1862:
        popq      %rbx                                          #221.9
	.cfi_def_cfa_offset 40
	.cfi_restore 15
..LN1863:
        popq      %r15                                          #221.9
	.cfi_def_cfa_offset 32
	.cfi_restore 14
..LN1864:
        popq      %r14                                          #221.9
	.cfi_def_cfa_offset 24
	.cfi_restore 13
..LN1865:
        popq      %r13                                          #221.9
	.cfi_def_cfa_offset 16
	.cfi_restore 12
..LN1866:
        popq      %r12                                          #221.9
	.cfi_def_cfa_offset 8
..LN1867:
        ret                                                     #221.9
        .align    16,0x90
..LN1868:
                                # LOE
..LN1869:
	.cfi_endproc
# mark_end;
	.type	_Z18calculer_eval_coupP5ECoupP3Posiiii,@function
	.size	_Z18calculer_eval_coupP5ECoupP3Posiiii,.-_Z18calculer_eval_coupP5ECoupP3Posiiii
..LN_Z18calculer_eval_coupP5ECoupP3Posiiii.1870:
.LN_Z18calculer_eval_coupP5ECoupP3Posiiii:
	.data
# -- End  _Z18calculer_eval_coupP5ECoupP3Posiiii
	.text
.L_2__routine_start__Z14valeur_minimaxP3Posiiii_15:
# -- Begin  _Z14valeur_minimaxP3Posiiii
	.text
# mark_begin;
       .align    16,0x90
	.globl _Z14valeur_minimaxP3Posiiii
# --- valeur_minimax(Position *, int, int, int, int)
_Z14valeur_minimaxP3Posiiii:
# parameter 1(pos): %rdi
# parameter 2(joueur): %esi
# parameter 3(alpha): %edx
# parameter 4(beta): %ecx
# parameter 5(pmax): %r8d
..B16.1:                        # Preds ..B16.0
                                # Execution count [1.00e+00]
	.cfi_startproc
	.cfi_personality 0x3,__gxx_personality_v0
..___tag_value__Z14valeur_minimaxP3Posiiii.642:
..L643:
                                                        #224.87
..LN1871:
	.loc    1  224  is_stmt 1
        subq      $168, %rsp                                    #224.87
	.cfi_def_cfa_offset 176
..LN1872:
	.loc    1  227  prologue_end  is_stmt 1
        movl      48(%rdi), %eax                                #227.6
..LN1873:
        movl      52(%rdi), %r10d                               #227.27
..LN1874:
	.loc    1  226  is_stmt 1
        incq      NUM_MINIMAX(%rip)                             #226.2
..LN1875:
	.loc    1  227  is_stmt 1
        lea       (%rax,%r10), %r9d                             #227.27
..LN1876:
        cmpl      $24, %r9d                                     #227.48
..LN1877:
        jle       ..B16.10      # Prob 50%                      #227.48
..LN1878:
                                # LOE rbx rbp rdi r12 r13 r14 r15 eax edx ecx esi r8d r10d
..B16.2:                        # Preds ..B16.1
                                # Execution count [5.00e-01]
..LN1879:
	.loc    1  228  is_stmt 1
        movl      %eax, %r9d                                    #228.7
..LN1880:
        negl      %r9d                                          #228.7
..LN1881:
        addl      $48, %r9d                                     #228.7
..LN1882:
        subl      %r10d, %r9d                                   #228.7
..LN1883:
        cmpl      $6, %r9d                                      #228.51
..LN1884:
        jg        ..B16.6       # Prob 50%                      #228.51
..LN1885:
                                # LOE rbx rbp rdi r12 r13 r14 r15 eax edx ecx esi r8d r10d
..B16.3:                        # Preds ..B16.2
                                # Execution count [2.50e-01]
..LN1886:
	.loc    1  229  is_stmt 1
        cmpl      %r10d, %eax                                   #229.29
..LN1887:
        jg        ..B16.5       # Prob 28%                      #229.29
..LN1888:
                                # LOE rbx rbp r12 r13 r14 r15
..B16.4:                        # Preds ..B16.3
                                # Execution count [1.80e-01]
..LN1889:
	.loc    1  230  is_stmt 1
        movl      $-48, %edx                                    #230.56
..LN1890:
        movl      $0, %eax                                      #230.56
..LN1891:
        cmovl     %edx, %eax                                    #230.56
..LN1892:
	.loc    1  230  epilogue_begin  is_stmt 1
        addq      $168, %rsp                                    #230.56
	.cfi_def_cfa_offset 8
..LN1893:
        ret                                                     #230.56
	.cfi_def_cfa_offset 176
..LN1894:
                                # LOE
..B16.5:                        # Preds ..B16.6 ..B16.3
                                # Execution count [7.00e-02]
..LN1895:
	.loc    1  229  is_stmt 1
        movl      $48, %eax                                     #229.56
..LN1896:
	.loc    1  229  epilogue_begin  is_stmt 1
        addq      $168, %rsp                                    #229.56
	.cfi_def_cfa_offset 8
..LN1897:
        ret                                                     #229.56
	.cfi_def_cfa_offset 176
..LN1898:
                                # LOE
..B16.6:                        # Preds ..B16.2
                                # Execution count [2.50e-01]
..LN1899:
	.loc    1  233  is_stmt 1
        cmpl      $25, %eax                                     #233.29
..LN1900:
        jge       ..B16.5       # Prob 28%                      #233.29
..LN1901:
                                # LOE rbx rbp rdi r12 r13 r14 r15 eax edx ecx esi r8d r10d
..B16.7:                        # Preds ..B16.6
                                # Execution count [1.80e-01]
..LN1902:
	.loc    1  234  is_stmt 1
        cmpl      $25, %r10d                                    #234.29
..LN1903:
        jl        ..B16.10      # Prob 72%                      #234.29
..LN1904:
                                # LOE rbx rbp rdi r12 r13 r14 r15 eax edx ecx esi r8d r10d
..B16.8:                        # Preds ..B16.7
                                # Execution count [5.04e-02]
..LN1905:
        movl      $-48, %eax                                    #234.40
..LN1906:
	.loc    1  234  epilogue_begin  is_stmt 1
        addq      $168, %rsp                                    #234.40
	.cfi_def_cfa_offset 8
..LN1907:
        ret                                                     #234.40
	.cfi_def_cfa_offset 176
..LN1908:
                                # LOE
..B16.10:                       # Preds ..B16.1 ..B16.7
                                # Execution count [6.30e-01]
..LN1909:
	.loc    1  236  is_stmt 1
        testl     %r8d, %r8d                                    #236.14
..LN1910:
        jne       ..B16.12      # Prob 72%                      #236.14
..LN1911:
                                # LOE rbx rbp rdi r12 r13 r14 r15 eax edx ecx esi r8d r10d
..B16.11:                       # Preds ..B16.10
                                # Execution count [1.76e-01]
..LN1912:
	.loc    1  179  is_stmt 1
        subl      %r10d, %eax                                   #179.9
..LN1913:
	.loc    1  236  epilogue_begin  is_stmt 1
        addq      $168, %rsp                                    #236.24
	.cfi_def_cfa_offset 8
..LN1914:
        ret                                                     #236.24
	.cfi_def_cfa_offset 176
..LN1915:
                                # LOE
..B16.12:                       # Preds ..B16.10
                                # Execution count [4.53e-01]
..LN1916:
	.loc    1  212  is_stmt 1
        xorl      %r9d, %r9d                                    #212.9
..LN1917:
	.loc    1  216  is_stmt 1
        decl      %r8d                                          #216.65
..LN1918:
        movl      %ecx, 152(%rsp)                               #216.65[spill]
..LN1919:
        movq      %r12, 144(%rsp)                               #216.65[spill]
	.cfi_offset 12, -32
..LN1920:
        movl      %r9d, %r12d                                   #216.65
..LN1921:
        movq      %r13, 136(%rsp)                               #216.65[spill]
	.cfi_offset 13, -40
..LN1922:
        movl      %edx, %r13d                                   #216.65
..LN1923:
        movq      %r14, 128(%rsp)                               #216.65[spill]
	.cfi_offset 14, -48
..LN1924:
        movl      %r9d, %r14d                                   #216.65
..LN1925:
        movq      %r15, 120(%rsp)                               #216.65[spill]
	.cfi_offset 15, -56
..LN1926:
        movl      %esi, %r15d                                   #216.65
..LN1927:
        movq      %rbx, 112(%rsp)                               #216.65[spill]
	.cfi_offset 3, -64
..LN1928:
        movl      %r8d, %ebx                                    #216.65
..LN1929:
        movq      %rbp, 104(%rsp)                               #216.65[spill]
	.cfi_offset 6, -72
..LN1930:
        movq      %rdi, %rbp                                    #216.65
..LN1931:
                                # LOE rbp ebx r12d r13d r14d r15d
..B16.13:                       # Preds ..B16.17 ..B16.12
                                # Execution count [2.72e+00]
..L671:
                # optimization report
                # %s was not vectorized: vector dependence prevents vectorization%s
                # VECTOR TRIP COUNT IS KNOWN CONSTANT
..LN1932:
	.loc    1  214  is_stmt 1
..LN1933:
	.loc    1  215  is_stmt 1
        movq      %rbp, %rsi                                    #215.7
..LN1934:
        lea       48(%rsp), %rdi                                #215.7
..LN1935:
        movl      %r15d, %edx                                   #215.7
..LN1936:
        movl      %r12d, %ecx                                   #215.7
..___tag_value__Z14valeur_minimaxP3Posiiii.672:
..LN1937:
#       jouer_coup(Position *, Position *, int, int)
        call      _Z10jouer_coupP3PosS0_ii                      #215.7
..___tag_value__Z14valeur_minimaxP3Posiiii.673:
..LN1938:
                                # LOE rbp eax ebx r12d r13d r14d r15d
..B16.14:                       # Preds ..B16.13
                                # Execution count [2.72e+00]
..LN1939:
        testl     %eax, %eax                                    #215.7
..LN1940:
        je        ..B16.17      # Prob 78%                      #215.7
..LN1941:
                                # LOE rbp ebx r12d r13d r14d r15d
..B16.15:                       # Preds ..B16.14
                                # Execution count [5.98e-01]
..LN1942:
	.loc    1  216  is_stmt 1
        movl      %r13d, %edx                                   #216.18
..LN1943:
        lea       48(%rsp), %rdi                                #216.18
..LN1944:
        xorl      %esi, %esi                                    #216.18
..LN1945:
        testl     %r15d, %r15d                                  #216.18
..LN1946:
        movl      %ebx, %r8d                                    #216.18
..LN1947:
